	.text
	.syntax unified
	.eabi_attribute	67, "2.09"
	.cpu	cortex-m7
	.eabi_attribute	6, 13
	.eabi_attribute	7, 77
	.eabi_attribute	8, 0
	.eabi_attribute	9, 2
	.fpu	fpv5-sp-d16
	.eabi_attribute	27, 1
	.eabi_attribute	36, 1
	.eabi_attribute	34, 1
	.eabi_attribute	17, 1
	.eabi_attribute	20, 1
	.eabi_attribute	21, 0
	.eabi_attribute	23, 3
	.eabi_attribute	24, 1
	.eabi_attribute	25, 1
	.eabi_attribute	28, 1
	.eabi_attribute	38, 1
	.eabi_attribute	14, 0
	.file	"thermostat_eem.8b4afdda-cgu.0"
	.section	.text._ZN4core3ops8function6FnOnce9call_once17h4b33d2a68af58905E,"ax",%progbits
	.p2align	1
	.type	core::ops::function::FnOnce::call_once::h4b33d2a68af58905,%function
	.code	16
	.thumb_func
core::ops::function::FnOnce::call_once::h4b33d2a68af58905:
.Lfunc_begin0:
	.fnstart
	.cfi_sections .debug_frame
	.cfi_startproc
	.save	{r4, r5, r6, r7, lr}
	push	{r4, r5, r6, r7, lr}
	.cfi_def_cfa_offset 20
	.cfi_offset lr, -4
	.cfi_offset r7, -8
	.cfi_offset r6, -12
	.cfi_offset r5, -16
	.cfi_offset r4, -20
	.setfp	r7, sp, #12
	add	r7, sp, #12
	.cfi_def_cfa r7, 8
	.save	{r11}
	str	r11, [sp, #-4]!
	.cfi_offset r11, -24
	bl	__primask_r
	and	r6, r0, #1
	bl	__cpsid
	movw	r0, :lower16:.L_MergedGlobals
	movt	r0, :upper16:.L_MergedGlobals
	ldrd	r1, r2, [r0, #64]
	eor	r1, r1, #1
	orrs	r1, r2
	bne	.LBB0_4
	movw	r1, #57360
	movt	r1, #57344
	ldr	r1, [r1]
	lsls	r1, r1, #15
	ldrd	r4, r5, [r0, #72]
	bmi	.LBB0_5
	cbz	r6, .LBB0_6
.LBB0_3:
	mov	r0, r4
	mov	r1, r5
	ldr	r11, [sp], #4
	pop	{r4, r5, r6, r7, pc}
.LBB0_4:
	movs	r4, #0
	movs	r5, #0
	cmp	r6, #0
	bne	.LBB0_3
	b	.LBB0_6
.LBB0_5:
	adds	r4, #1
	adc	r5, r5, #0
	strd	r4, r5, [r0, #72]
	cmp	r6, #0
	bne	.LBB0_3
.LBB0_6:
	bl	__cpsie
	mov	r0, r4
	mov	r1, r5
	ldr	r11, [sp], #4
	pop	{r4, r5, r6, r7, pc}
.Lfunc_end0:
	.size	core::ops::function::FnOnce::call_once::h4b33d2a68af58905, .Lfunc_end0-core::ops::function::FnOnce::call_once::h4b33d2a68af58905
	.cfi_endproc
	.cantunwind
	.fnend

	.section	".text._ZN4core3ptr25drop_in_place$LT$bool$GT$17h0b92a80a750bd66fE","ax",%progbits
	.p2align	1
	.type	core::ptr::drop_in_place<bool>::h0b92a80a750bd66f,%function
	.code	16
	.thumb_func
core::ptr::drop_in_place<bool>::h0b92a80a750bd66f:
.Lfunc_begin1:
	.fnstart
	.cfi_startproc
	bx	lr
.Lfunc_end1:
	.size	core::ptr::drop_in_place<bool>::h0b92a80a750bd66f, .Lfunc_end1-core::ptr::drop_in_place<bool>::h0b92a80a750bd66f
	.cfi_endproc
	.cantunwind
	.fnend

	.section	.text._ZN6minimq2de11deserialize14ReceivedPacket13parse_message17h034bbc7cb83704e5E,"ax",%progbits
	.p2align	2
	.type	minimq::de::deserialize::ReceivedPacket::parse_message::h034bbc7cb83704e5,%function
	.code	16
	.thumb_func
minimq::de::deserialize::ReceivedPacket::parse_message::h034bbc7cb83704e5:
.Lfunc_begin2:
	.fnstart
	.cfi_startproc
	.save	{r4, r5, r6, r7, lr}
	push	{r4, r5, r6, r7, lr}
	.cfi_def_cfa_offset 20
	.cfi_offset lr, -4
	.cfi_offset r7, -8
	.cfi_offset r6, -12
	.cfi_offset r5, -16
	.cfi_offset r4, -20
	.setfp	r7, sp, #12
	add	r7, sp, #12
	.cfi_def_cfa r7, 8
	.save	{r8, r9, r10}
	push.w	{r8, r9, r10}
	.cfi_offset r10, -24
	.cfi_offset r9, -28
	.cfi_offset r8, -32
	.pad	#680
	sub.w	sp, sp, #680
	mov	r5, r1
	ldr	r1, [r1, #12]
	cmp	r1, #0
	bne.w	.LBB2_55
	mov	r4, r0
	ldr	r0, [r5, #4]
	cmp	r0, #1
	mov.w	r0, #-1
	str	r0, [r5, #12]
	bne.w	.LBB2_37
	ldr	r0, [r5, #16]
	ldr	r2, [r5, #8]
	adds	r1, r0, #1
	cmp	r1, r2
	bls	.LBB2_4
.LBB2_3:
	movs	r0, #1
	b	.LBB2_38
.LBB2_4:
	cmp.w	r0, #512
	bhi.w	.LBB2_56
	beq.w	.LBB2_57
	add	r0, r5
	ldrb	r6, [r0, #20]
	movs	r0, #0
	strd	r0, r1, [r5, #12]
	mov	r0, r5
	bl	minimq::de::packet_reader::PacketReader<_>::read_variable_length_integer::hc402570f88d76cbb
	lsls	r2, r0, #31
	bne	.LBB2_11
	lsrs	r0, r6, #4
	movs	r2, #0
.LBB2_8:
	cmp	r2, #16
	bhi	.LBB2_12
	subs	r3, r2, #1
	adds	r2, #1
	uxtb	r3, r3
	cmp	r3, r0
	bne	.LBB2_8
	ldr	r2, [r5, #4]
	cmp	r2, #1
	beq	.LBB2_13
	b	.LBB2_45
.LBB2_11:
	lsrs	r0, r0, #8
	orr.w	r0, r0, r1, lsl #24
	b	.LBB2_39
.LBB2_12:
	movs	r0, #255
	ldr	r2, [r5, #4]
	cmp	r2, #1
	bne.w	.LBB2_45
.LBB2_13:
	ldr	r2, [r5, #12]
	mvn	r3, #-2147483648
	cmp	r2, r3
	bhs.w	.LBB2_58
	ldr	r2, [r5, #8]
	ldr	r3, [r5, #16]
	subs	r2, r2, r3
	cmp	r2, r1
	bne.w	.LBB2_45
	sxtb	r0, r0
	subs	r0, #2
	cmp	r0, #11
	bhi.w	.LBB2_40
	and	r2, r6, #15
.LCPI2_0:
	tbb	[pc, r0]
.LJTI2_0:
	.byte	(.LBB2_18-(.LCPI2_0+4))/2
	.byte	(.LBB2_21-(.LCPI2_0+4))/2
	.byte	(.LBB2_28-(.LCPI2_0+4))/2
	.byte	(.LBB2_40-(.LCPI2_0+4))/2
	.byte	(.LBB2_40-(.LCPI2_0+4))/2
	.byte	(.LBB2_40-(.LCPI2_0+4))/2
	.byte	(.LBB2_40-(.LCPI2_0+4))/2
	.byte	(.LBB2_41-(.LCPI2_0+4))/2
	.byte	(.LBB2_40-(.LCPI2_0+4))/2
	.byte	(.LBB2_40-(.LCPI2_0+4))/2
	.byte	(.LBB2_40-(.LCPI2_0+4))/2
	.byte	(.LBB2_44-(.LCPI2_0+4))/2
	.p2align	1
.LBB2_18:
	cmp	r2, #0
	bne.w	.LBB2_45
	add	r6, sp, #508
	mov	r1, r5
	mov	r0, r6
	bl	minimq::de::deserialize::parse_connack::hb7212ae54fa3b408
	ldrb.w	r0, [sp, #508]
	cmp	r0, #0
	bne.w	.LBB2_43
	add.w	r0, sp, #338
	adds	r1, r6, #4
	adds	r5, r0, #2
	movs	r2, #168
	mov	r0, r5
	bl	__aeabi_memcpy
	add.w	r0, r4, #8
	movs	r2, #168
	mov	r1, r5
	bl	__aeabi_memcpy
	movs	r0, #0
	str	r0, [r4, #4]
	strb	r0, [r4]
	add.w	sp, sp, #680
	pop.w	{r8, r9, r10}
	pop	{r4, r5, r6, r7, pc}
.LBB2_21:
	add	r0, sp, #508
	mov	r1, r5
	bl	minimq::de::packet_reader::PacketReader<_>::read_utf8_string::hd700b0b0ed6ab82e
	ldrb.w	r0, [sp, #508]
	cmp	r0, #0
	bne.w	.LBB2_43
	add	r6, sp, #508
	mov	r1, r5
	mov	r0, r6
	ldrd	r8, r9, [sp, #512]
	bl	minimq::de::packet_reader::PacketReader<_>::read_properties::hf2ea26764b522615
	ldrb.w	r0, [sp, #508]
	cmp	r0, #0
	bne.w	.LBB2_43
	add.w	r0, sp, #338
	adds	r1, r6, #4
	adds	r6, r0, #2
	movs	r2, #164
	mov	r0, r6
	bl	__aeabi_memcpy
	add	r0, sp, #172
	movs	r2, #164
	mov	r1, r6
	bl	__aeabi_memcpy
	ldr	r1, [r5, #12]
	mvn	r0, #-2147483648
	cmp	r1, r0
	bhs.w	.LBB2_60
	ldr	r0, [r5, #4]
	cmp	r0, #1
	add.w	r0, r1, #1
	str	r0, [r5, #12]
	bne.w	.LBB2_54
	ldr	r0, [r5, #16]
	ldr	r3, [r5, #8]
	cmp	r3, r0
	blo.w	.LBB2_61
	cmp.w	r3, #512
	bhi.w	.LBB2_62
	adds	r2, r5, r0
	sub.w	r10, r3, r0
	add.w	r6, r2, #20
	str	r1, [r5, #12]
	add.w	r0, r4, #16
	add	r1, sp, #172
	movs	r2, #164
	bl	__aeabi_memcpy4
	adds	r1, r4, #4
	movs	r0, #1
	strd	r6, r10, [r4, #180]
	stm.w	r1, {r0, r8, r9}
	b	.LBB2_53
.LBB2_28:
	mov	r0, r5
	bl	minimq::de::packet_reader::PacketReader<_>::read_u16::h557d607ffb28ea51
	mov	r6, r0
	lsls	r0, r0, #31
	bne	.LBB2_47
	ldr	r0, [r5, #4]
	ldr	r1, [r5, #8]
	cmp	r0, #1
	it	eq
	cmpeq	r1, #4
	beq	.LBB2_49
	ldr	r2, [r5, #12]
	cmp	r2, #0
	bne.w	.LBB2_55
	cmp	r0, #1
	mov.w	r0, #-1
	str	r0, [r5, #12]
	bne	.LBB2_37
	ldr	r0, [r5, #16]
	adds	r2, r0, #1
	cmp	r2, r1
	bhi.w	.LBB2_3
	cmp.w	r0, #512
	bhi.w	.LBB2_56
	beq.w	.LBB2_57
	add	r0, r5
	add.w	r8, sp, #508
	mov	r1, r5
	ldrb.w	r9, [r0, #20]
	movs	r0, #0
	strd	r0, r2, [r5, #12]
	mov	r0, r8
	bl	minimq::de::packet_reader::PacketReader<_>::read_properties::hf2ea26764b522615
	ldrb.w	r0, [sp, #508]
	cbnz	r0, .LBB2_43
	add.w	r0, sp, #338
	add.w	r1, r8, #4
	adds	r5, r0, #2
	movs	r2, #164
	mov	r0, r5
	bl	__aeabi_memcpy
	add	r0, sp, #172
	movs	r2, #164
	adds	r0, #2
	mov	r1, r5
	bl	__aeabi_memcpy
	b	.LBB2_50
.LBB2_37:
	movs	r0, #5
.LBB2_38:
	movs	r1, #0
	str	r1, [r5, #12]
.LBB2_39:
	strb	r0, [r4, #1]
	movs	r0, #1
	strb	r0, [r4]
	add.w	sp, sp, #680
	pop.w	{r8, r9, r10}
	pop	{r4, r5, r6, r7, pc}
.LBB2_40:
	movw	r0, #2049
	b	.LBB2_46
.LBB2_41:
	cbnz	r2, .LBB2_45
	add	r6, sp, #508
	mov	r1, r5
	mov	r0, r6
	bl	minimq::de::deserialize::parse_suback::h127122dbbbe03438
	ldrb.w	r0, [sp, #508]
	cbz	r0, .LBB2_51
.LBB2_43:
	ldrb.w	r0, [sp, #509]
	b	.LBB2_39
.LBB2_44:
	cmp	r2, #0
	it	eq
	cmpeq	r1, #0
	beq	.LBB2_48
.LBB2_45:
	movw	r0, #1281
.LBB2_46:
	strh	r0, [r4]
	add.w	sp, sp, #680
	pop.w	{r8, r9, r10}
	pop	{r4, r5, r6, r7, pc}
.LBB2_47:
	lsrs	r0, r6, #8
	b	.LBB2_39
.LBB2_48:
	movs	r0, #4
	b	.LBB2_52
.LBB2_49:
	add	r0, sp, #172
	movs	r1, #164
	adds	r0, #2
	bl	__aeabi_memclr
	mov.w	r9, #0
.LBB2_50:
	add.w	r2, sp, #6
	add	r0, sp, #172
	adds	r5, r2, #2
	adds	r1, r0, #2
	movs	r2, #164
	mov	r0, r5
	lsrs	r6, r6, #16
	bl	__aeabi_memcpy
	add.w	r0, r4, #8
	movs	r2, #164
	mov	r1, r5
	bl	__aeabi_memcpy
	movs	r0, #2
	str	r0, [r4, #4]
	strh.w	r6, [r4, #172]
	strb.w	r9, [r4, #174]
	b	.LBB2_53
.LBB2_51:
	add.w	r0, sp, #338
	adds	r1, r6, #4
	adds	r5, r0, #2
	movs	r2, #168
	mov	r0, r5
	bl	__aeabi_memcpy
	add.w	r0, r4, #8
	movs	r2, #168
	mov	r1, r5
	bl	__aeabi_memcpy
	movs	r0, #3
.LBB2_52:
	str	r0, [r4, #4]
.LBB2_53:
	movs	r0, #0
	strb	r0, [r4]
	add.w	sp, sp, #680
	pop.w	{r8, r9, r10}
	pop	{r4, r5, r6, r7, pc}
.LBB2_54:
	str	r1, [r5, #12]
	movs	r0, #5
	b	.LBB2_39
.LBB2_55:
	movw	r6, :lower16:.Lanon.0c1329e98a8e4daf707f1d3aba20b49b.11
	movw	r0, :lower16:.Lanon.0c1329e98a8e4daf707f1d3aba20b49b.352
	movw	r3, :lower16:.Lanon.0c1329e98a8e4daf707f1d3aba20b49b.362
	movt	r6, :upper16:.Lanon.0c1329e98a8e4daf707f1d3aba20b49b.11
	movt	r0, :upper16:.Lanon.0c1329e98a8e4daf707f1d3aba20b49b.352
	movt	r3, :upper16:.Lanon.0c1329e98a8e4daf707f1d3aba20b49b.362
	add	r2, sp, #508
	movs	r1, #16
	str	r6, [sp]
	bl	core::result::unwrap_failed::he67be68ddf63c991
	.inst.n	0xdefe
.LBB2_56:
	movw	r2, :lower16:.Lanon.0c1329e98a8e4daf707f1d3aba20b49b.12
	mov.w	r1, #512
	movt	r2, :upper16:.Lanon.0c1329e98a8e4daf707f1d3aba20b49b.12
	bl	core::slice::index::slice_start_index_len_fail::haaeda2757c9375c3
	.inst.n	0xdefe
.LBB2_57:
	movw	r2, :lower16:.Lanon.0c1329e98a8e4daf707f1d3aba20b49b.12
	movs	r0, #1
	movt	r2, :upper16:.Lanon.0c1329e98a8e4daf707f1d3aba20b49b.12
	movs	r1, #0
	bl	core::slice::index::slice_end_index_len_fail::h5a91c503035fd6a0
	.inst.n	0xdefe
.LBB2_58:
	movw	r6, :lower16:.Lanon.0c1329e98a8e4daf707f1d3aba20b49b.15
	movt	r6, :upper16:.Lanon.0c1329e98a8e4daf707f1d3aba20b49b.15
.LBB2_59:
	movw	r0, :lower16:.Lanon.0c1329e98a8e4daf707f1d3aba20b49b.351
	movw	r3, :lower16:.Lanon.0c1329e98a8e4daf707f1d3aba20b49b.361
	movt	r0, :upper16:.Lanon.0c1329e98a8e4daf707f1d3aba20b49b.351
	movt	r3, :upper16:.Lanon.0c1329e98a8e4daf707f1d3aba20b49b.361
	add	r2, sp, #508
	movs	r1, #24
	str	r6, [sp]
	bl	core::result::unwrap_failed::he67be68ddf63c991
	.inst.n	0xdefe
.LBB2_60:
	movw	r6, :lower16:.Lanon.0c1329e98a8e4daf707f1d3aba20b49b.9
	movt	r6, :upper16:.Lanon.0c1329e98a8e4daf707f1d3aba20b49b.9
	b	.LBB2_59
.LBB2_61:
	movw	r2, :lower16:.Lanon.0c1329e98a8e4daf707f1d3aba20b49b.10
	mov	r1, r3
	movt	r2, :upper16:.Lanon.0c1329e98a8e4daf707f1d3aba20b49b.10
	bl	core::slice::index::slice_index_order_fail::h8a53f055fb6ee074
	.inst.n	0xdefe
.LBB2_62:
	movw	r2, :lower16:.Lanon.0c1329e98a8e4daf707f1d3aba20b49b.10
	mov.w	r1, #512
	movt	r2, :upper16:.Lanon.0c1329e98a8e4daf707f1d3aba20b49b.10
	mov	r0, r3
	bl	core::slice::index::slice_end_index_len_fail::h5a91c503035fd6a0
	.inst.n	0xdefe
.Lfunc_end2:
	.size	minimq::de::deserialize::ReceivedPacket::parse_message::h034bbc7cb83704e5, .Lfunc_end2-minimq::de::deserialize::ReceivedPacket::parse_message::h034bbc7cb83704e5
	.cfi_endproc
	.cantunwind
	.fnend

	.section	.text._ZN6minimq2de11deserialize13parse_connack17hb7212ae54fa3b408E,"ax",%progbits
	.p2align	1
	.type	minimq::de::deserialize::parse_connack::hb7212ae54fa3b408,%function
	.code	16
	.thumb_func
minimq::de::deserialize::parse_connack::hb7212ae54fa3b408:
.Lfunc_begin3:
	.fnstart
	.cfi_startproc
	.save	{r4, r5, r6, r7, lr}
	push	{r4, r5, r6, r7, lr}
	.cfi_def_cfa_offset 20
	.cfi_offset lr, -4
	.cfi_offset r7, -8
	.cfi_offset r6, -12
	.cfi_offset r5, -16
	.cfi_offset r4, -20
	.setfp	r7, sp, #12
	add	r7, sp, #12
	.cfi_def_cfa r7, 8
	.save	{r8, r9, r11}
	push.w	{r8, r9, r11}
	.cfi_offset r11, -24
	.cfi_offset r9, -28
	.cfi_offset r8, -32
	.pad	#344
	sub	sp, #344
	ldr	r2, [r1, #12]
	cmp	r2, #0
	bne	.LBB3_17
	mov	r4, r0
	ldr	r0, [r1, #4]
	cmp	r0, #1
	mov.w	r0, #-1
	str	r0, [r1, #12]
	bne	.LBB3_4
	ldr	r0, [r1, #16]
	ldr	r3, [r1, #8]
	adds	r2, r0, #1
	cmp	r2, r3
	bls	.LBB3_7
	movs	r0, #1
	b	.LBB3_5
.LBB3_4:
	movs	r0, #5
.LBB3_5:
	movs	r2, #0
	str	r2, [r1, #12]
.LBB3_6:
	strb	r0, [r4, #1]
	movs	r0, #1
	strb	r0, [r4]
	add	sp, #344
	pop.w	{r8, r9, r11}
	pop	{r4, r5, r6, r7, pc}
.LBB3_7:
	cmp.w	r0, #512
	bhi	.LBB3_19
	beq	.LBB3_18
	adds	r6, r1, r0
	movs	r5, #0
	ldrb	r6, [r6, #20]
	str	r5, [r1, #12]
	str	r2, [r1, #16]
	cmp	r6, #2
	bhs	.LBB3_12
	adds	r0, #2
	cmp	r0, r3
	mov.w	r3, #-1
	str	r3, [r1, #12]
	bls	.LBB3_13
	movs	r0, #0
	str	r0, [r1, #12]
	movw	r0, #257
	strh	r0, [r4]
	add	sp, #344
	pop.w	{r8, r9, r11}
	pop	{r4, r5, r6, r7, pc}
.LBB3_12:
	movw	r0, #1281
	strh	r0, [r4]
	add	sp, #344
	pop.w	{r8, r9, r11}
	pop	{r4, r5, r6, r7, pc}
.LBB3_13:
	cmp.w	r2, #512
	beq	.LBB3_18
	add	r2, r1
	add	r5, sp, #176
	mov.w	r9, #0
	ldrb.w	r8, [r2, #20]
	strd	r9, r0, [r1, #12]
	mov	r0, r5
	bl	minimq::de::packet_reader::PacketReader<_>::read_properties::hf2ea26764b522615
	ldrb.w	r0, [sp, #176]
	cbz	r0, .LBB3_16
	ldrb.w	r0, [sp, #177]
	b	.LBB3_6
.LBB3_16:
	add.w	r0, sp, #10
	adds	r1, r5, #4
	adds	r5, r0, #2
	movs	r2, #164
	mov	r0, r5
	bl	__aeabi_memcpy
	adds	r0, r4, #4
	movs	r2, #164
	mov	r1, r5
	bl	__aeabi_memcpy
	strb.w	r6, [r4, #168]
	strb.w	r8, [r4, #169]
	strb.w	r9, [r4]
	add	sp, #344
	pop.w	{r8, r9, r11}
	pop	{r4, r5, r6, r7, pc}
.LBB3_17:
	movw	r0, :lower16:.Lanon.0c1329e98a8e4daf707f1d3aba20b49b.352
	movw	r3, :lower16:.Lanon.0c1329e98a8e4daf707f1d3aba20b49b.362
	movw	r6, :lower16:.Lanon.0c1329e98a8e4daf707f1d3aba20b49b.11
	movt	r0, :upper16:.Lanon.0c1329e98a8e4daf707f1d3aba20b49b.352
	movt	r3, :upper16:.Lanon.0c1329e98a8e4daf707f1d3aba20b49b.362
	add	r2, sp, #176
	movs	r1, #16
	movt	r6, :upper16:.Lanon.0c1329e98a8e4daf707f1d3aba20b49b.11
	str	r6, [sp]
	bl	core::result::unwrap_failed::he67be68ddf63c991
	.inst.n	0xdefe
.LBB3_18:
	movw	r2, :lower16:.Lanon.0c1329e98a8e4daf707f1d3aba20b49b.12
	movs	r0, #1
	movt	r2, :upper16:.Lanon.0c1329e98a8e4daf707f1d3aba20b49b.12
	movs	r1, #0
	bl	core::slice::index::slice_end_index_len_fail::h5a91c503035fd6a0
	.inst.n	0xdefe
.LBB3_19:
	movw	r2, :lower16:.Lanon.0c1329e98a8e4daf707f1d3aba20b49b.12
	mov.w	r1, #512
	movt	r2, :upper16:.Lanon.0c1329e98a8e4daf707f1d3aba20b49b.12
	bl	core::slice::index::slice_start_index_len_fail::haaeda2757c9375c3
	.inst.n	0xdefe
.Lfunc_end3:
	.size	minimq::de::deserialize::parse_connack::hb7212ae54fa3b408, .Lfunc_end3-minimq::de::deserialize::parse_connack::hb7212ae54fa3b408
	.cfi_endproc
	.cantunwind
	.fnend

	.section	.text._ZN6minimq2de11deserialize12parse_suback17h127122dbbbe03438E,"ax",%progbits
	.p2align	1
	.type	minimq::de::deserialize::parse_suback::h127122dbbbe03438,%function
	.code	16
	.thumb_func
minimq::de::deserialize::parse_suback::h127122dbbbe03438:
.Lfunc_begin4:
	.fnstart
	.cfi_startproc
	.save	{r4, r5, r6, r7, lr}
	push	{r4, r5, r6, r7, lr}
	.cfi_def_cfa_offset 20
	.cfi_offset lr, -4
	.cfi_offset r7, -8
	.cfi_offset r6, -12
	.cfi_offset r5, -16
	.cfi_offset r4, -20
	.setfp	r7, sp, #12
	add	r7, sp, #12
	.cfi_def_cfa r7, 8
	.save	{r8, r9, r11}
	push.w	{r8, r9, r11}
	.cfi_offset r11, -24
	.cfi_offset r9, -28
	.cfi_offset r8, -32
	.pad	#504
	sub	sp, #504
	mov	r4, r0
	mov	r0, r1
	mov	r5, r1
	bl	minimq::de::packet_reader::PacketReader<_>::read_u16::h557d607ffb28ea51
	mov	r6, r0
	lsls	r0, r0, #31
	bne	.LBB4_3
	add.w	r8, sp, #336
	mov	r1, r5
	mov	r0, r8
	bl	minimq::de::packet_reader::PacketReader<_>::read_properties::hf2ea26764b522615
	ldrb.w	r0, [sp, #336]
	cbz	r0, .LBB4_4
	ldrb.w	r0, [sp, #337]
	b	.LBB4_10
.LBB4_3:
	lsrs	r0, r6, #8
	b	.LBB4_10
.LBB4_4:
	add.w	r0, sp, #170
	add.w	r1, r8, #4
	add.w	r8, r0, #2
	movs	r2, #164
	mov	r0, r8
	bl	__aeabi_memcpy
	add	r0, sp, #4
	movs	r2, #164
	mov	r1, r8
	bl	__aeabi_memcpy
	ldr	r0, [r5, #12]
	cbnz	r0, .LBB4_14
	ldr	r0, [r5, #4]
	cmp	r0, #1
	mov.w	r0, #-1
	str	r0, [r5, #12]
	bne	.LBB4_8
	ldr	r0, [r5, #16]
	ldr	r2, [r5, #8]
	adds	r1, r0, #1
	cmp	r1, r2
	bls	.LBB4_11
	movs	r0, #1
	b	.LBB4_9
.LBB4_8:
	movs	r0, #5
.LBB4_9:
	movs	r1, #0
	str	r1, [r5, #12]
.LBB4_10:
	strb	r0, [r4, #1]
	movs	r0, #1
	strb	r0, [r4]
	add	sp, #504
	pop.w	{r8, r9, r11}
	pop	{r4, r5, r6, r7, pc}
.LBB4_11:
	cmp.w	r0, #512
	bhi	.LBB4_15
	beq	.LBB4_16
	add	r0, r5
	mov.w	r9, #0
	movs	r2, #164
	lsrs	r6, r6, #16
	ldrb.w	r8, [r0, #20]
	adds	r0, r4, #4
	strd	r9, r1, [r5, #12]
	add	r1, sp, #4
	bl	__aeabi_memcpy4
	strh.w	r6, [r4, #168]
	strb.w	r8, [r4, #170]
	strb.w	r9, [r4]
	add	sp, #504
	pop.w	{r8, r9, r11}
	pop	{r4, r5, r6, r7, pc}
.LBB4_14:
	movw	r0, :lower16:.Lanon.0c1329e98a8e4daf707f1d3aba20b49b.352
	movw	r3, :lower16:.Lanon.0c1329e98a8e4daf707f1d3aba20b49b.362
	movw	r6, :lower16:.Lanon.0c1329e98a8e4daf707f1d3aba20b49b.11
	movt	r0, :upper16:.Lanon.0c1329e98a8e4daf707f1d3aba20b49b.352
	movt	r3, :upper16:.Lanon.0c1329e98a8e4daf707f1d3aba20b49b.362
	add	r2, sp, #336
	movs	r1, #16
	movt	r6, :upper16:.Lanon.0c1329e98a8e4daf707f1d3aba20b49b.11
	str	r6, [sp]
	bl	core::result::unwrap_failed::he67be68ddf63c991
	.inst.n	0xdefe
.LBB4_15:
	movw	r2, :lower16:.Lanon.0c1329e98a8e4daf707f1d3aba20b49b.12
	mov.w	r1, #512
	movt	r2, :upper16:.Lanon.0c1329e98a8e4daf707f1d3aba20b49b.12
	bl	core::slice::index::slice_start_index_len_fail::haaeda2757c9375c3
	.inst.n	0xdefe
.LBB4_16:
	movw	r2, :lower16:.Lanon.0c1329e98a8e4daf707f1d3aba20b49b.12
	movs	r0, #1
	movt	r2, :upper16:.Lanon.0c1329e98a8e4daf707f1d3aba20b49b.12
	movs	r1, #0
	bl	core::slice::index::slice_end_index_len_fail::h5a91c503035fd6a0
	.inst.n	0xdefe
.Lfunc_end4:
	.size	minimq::de::deserialize::parse_suback::h127122dbbbe03438, .Lfunc_end4-minimq::de::deserialize::parse_suback::h127122dbbbe03438
	.cfi_endproc
	.cantunwind
	.fnend

	.section	".text._ZN80_$LT$num_enum..TryFromPrimitiveError$LT$Enum$GT$$u20$as$u20$core..fmt..Debug$GT$3fmt17hbf382f91c07847b4E","ax",%progbits
	.p2align	1
	.type	<num_enum::TryFromPrimitiveError<Enum> as core::fmt::Debug>::fmt::hbf382f91c07847b4,%function
	.code	16
	.thumb_func
<num_enum::TryFromPrimitiveError<Enum> as core::fmt::Debug>::fmt::hbf382f91c07847b4:
.Lfunc_begin5:
	.fnstart
	.cfi_startproc
	.save	{r4, r6, r7, lr}
	push	{r4, r6, r7, lr}
	.cfi_def_cfa_offset 16
	.cfi_offset lr, -4
	.cfi_offset r7, -8
	.cfi_offset r6, -12
	.cfi_offset r4, -16
	.setfp	r7, sp, #8
	add	r7, sp, #8
	.cfi_def_cfa r7, 8
	.pad	#16
	sub	sp, #16
	mov	r3, r1
	movw	r1, :lower16:.Lanon.0c1329e98a8e4daf707f1d3aba20b49b.2
	mov	r4, r0
	movt	r1, :upper16:.Lanon.0c1329e98a8e4daf707f1d3aba20b49b.2
	movs	r2, #21
	mov	r0, r3
	bl	core::fmt::Formatter::debug_struct::h410abba8da9e6590
	movw	r3, :lower16:.Lanon.0c1329e98a8e4daf707f1d3aba20b49b.4
	movs	r2, #6
	strd	r0, r1, [sp, #8]
	movt	r3, :upper16:.Lanon.0c1329e98a8e4daf707f1d3aba20b49b.4
	movw	r1, :lower16:.Lanon.0c1329e98a8e4daf707f1d3aba20b49b.3
	movt	r1, :upper16:.Lanon.0c1329e98a8e4daf707f1d3aba20b49b.3
	add	r0, sp, #8
	str	r3, [sp]
	mov	r3, r4
	bl	core::fmt::builders::DebugStruct::field::hf57541a1df3c3ba1
	bl	core::fmt::builders::DebugStruct::finish::h13801c6cd64a79cd
	add	sp, #16
	pop	{r4, r6, r7, pc}
.Lfunc_end5:
	.size	<num_enum::TryFromPrimitiveError<Enum> as core::fmt::Debug>::fmt::hbf382f91c07847b4, .Lfunc_end5-<num_enum::TryFromPrimitiveError<Enum> as core::fmt::Debug>::fmt::hbf382f91c07847b4
	.cfi_endproc
	.cantunwind
	.fnend

	.section	".text._ZN6minimq2de13packet_reader21PacketReader$LT$_$GT$28read_variable_length_integer17hc402570f88d76cbbE","ax",%progbits
	.p2align	1
	.type	minimq::de::packet_reader::PacketReader<_>::read_variable_length_integer::hc402570f88d76cbb,%function
	.code	16
	.thumb_func
minimq::de::packet_reader::PacketReader<_>::read_variable_length_integer::hc402570f88d76cbb:
.Lfunc_begin6:
	.fnstart
	.cfi_startproc
	.save	{r4, r5, r7, lr}
	push	{r4, r5, r7, lr}
	.cfi_def_cfa_offset 16
	.cfi_offset lr, -4
	.cfi_offset r7, -8
	.cfi_offset r5, -12
	.cfi_offset r4, -16
	.setfp	r7, sp, #8
	add	r7, sp, #8
	.cfi_def_cfa r7, 8
	.pad	#8
	sub	sp, #8
	ldr	r1, [r0, #4]
	cmp	r1, #1
	ldr	r1, [r0, #12]
	bne	.LBB6_4
	cmp	r1, #0
	bne	.LBB6_20
	ldr.w	lr, [r0, #16]
	mov.w	r1, #-1
	ldr.w	r12, [r0, #8]
	add.w	r3, lr, #1
	cmp	r3, r12
	str	r1, [r0, #12]
	bls	.LBB6_7
.LBB6_3:
	movs	r3, #1
	b	.LBB6_6
.LBB6_4:
	cmp	r1, #0
	bne	.LBB6_20
	movs	r3, #5
.LBB6_6:
	movs	r1, #0
	str	r1, [r0, #12]
	movs	r2, #1
	orr.w	r0, r2, r3, lsl #8
	add	sp, #8
	pop	{r4, r5, r7, pc}
.LBB6_7:
	cmp.w	lr, #512
	bhi	.LBB6_22
	beq	.LBB6_21
	add.w	r1, r0, lr
	movs	r2, #0
	ldrsb.w	r1, [r1, #20]
	str	r2, [r0, #12]
	str	r3, [r0, #16]
	cmp.w	r1, #-1
	and	r1, r1, #127
	ble	.LBB6_11
.LBB6_10:
	movs	r3, #6
	orr.w	r0, r2, r3, lsl #8
	add	sp, #8
	pop	{r4, r5, r7, pc}
.LBB6_11:
	add.w	r4, lr, #2
	mov.w	r2, #-1
	cmp	r4, r12
	str	r2, [r0, #12]
	bhi	.LBB6_3
	cmp.w	r3, #512
	beq	.LBB6_21
	adds	r2, r0, r3
	ldrsb.w	r3, [r2, #20]
	movs	r2, #0
	str	r2, [r0, #12]
	and	r5, r3, #127
	cmp.w	r3, #-1
	str	r4, [r0, #16]
	orr.w	r1, r1, r5, lsl #7
	bgt	.LBB6_10
	add.w	r3, lr, #3
	mov.w	r2, #-1
	cmp	r3, r12
	str	r2, [r0, #12]
	bhi	.LBB6_3
	cmp.w	r4, #512
	beq	.LBB6_21
	adds	r2, r0, r4
	ldrsb.w	r4, [r2, #20]
	movs	r2, #0
	str	r2, [r0, #12]
	and	r5, r4, #127
	cmp.w	r4, #-1
	str	r3, [r0, #16]
	orr.w	r1, r1, r5, lsl #14
	bgt	.LBB6_10
	add.w	r2, lr, #4
	mov.w	r5, #-1
	cmp	r2, r12
	str	r5, [r0, #12]
	bhi	.LBB6_3
	cmp.w	r3, #512
	beq	.LBB6_21
	add	r3, r0
	movs	r4, #0
	ldrb	r3, [r3, #20]
	strd	r4, r2, [r0, #12]
	and	r5, r3, #127
	lsrs	r2, r3, #7
	orr.w	r1, r1, r5, lsl #21
	movs	r3, #6
	orr.w	r0, r2, r3, lsl #8
	add	sp, #8
	pop	{r4, r5, r7, pc}
.LBB6_20:
	movw	r0, :lower16:.Lanon.0c1329e98a8e4daf707f1d3aba20b49b.352
	movw	r3, :lower16:.Lanon.0c1329e98a8e4daf707f1d3aba20b49b.362
	movw	r5, :lower16:.Lanon.0c1329e98a8e4daf707f1d3aba20b49b.11
	movt	r0, :upper16:.Lanon.0c1329e98a8e4daf707f1d3aba20b49b.352
	movt	r3, :upper16:.Lanon.0c1329e98a8e4daf707f1d3aba20b49b.362
	add	r2, sp, #4
	movs	r1, #16
	movt	r5, :upper16:.Lanon.0c1329e98a8e4daf707f1d3aba20b49b.11
	str	r5, [sp]
	bl	core::result::unwrap_failed::he67be68ddf63c991
	.inst.n	0xdefe
.LBB6_21:
	movw	r2, :lower16:.Lanon.0c1329e98a8e4daf707f1d3aba20b49b.12
	movs	r0, #1
	movt	r2, :upper16:.Lanon.0c1329e98a8e4daf707f1d3aba20b49b.12
	movs	r1, #0
	bl	core::slice::index::slice_end_index_len_fail::h5a91c503035fd6a0
	.inst.n	0xdefe
.LBB6_22:
	movw	r2, :lower16:.Lanon.0c1329e98a8e4daf707f1d3aba20b49b.12
	mov.w	r1, #512
	movt	r2, :upper16:.Lanon.0c1329e98a8e4daf707f1d3aba20b49b.12
	mov	r0, lr
	bl	core::slice::index::slice_start_index_len_fail::haaeda2757c9375c3
	.inst.n	0xdefe
.Lfunc_end6:
	.size	minimq::de::packet_reader::PacketReader<_>::read_variable_length_integer::hc402570f88d76cbb, .Lfunc_end6-minimq::de::packet_reader::PacketReader<_>::read_variable_length_integer::hc402570f88d76cbb
	.cfi_endproc
	.cantunwind
	.fnend

	.section	.text._ZN8cortex_m9interrupt7disable17hb29bc2bb0325fad7E,"ax",%progbits
	.p2align	1
	.type	cortex_m::interrupt::disable::hb29bc2bb0325fad7,%function
	.code	16
	.thumb_func
cortex_m::interrupt::disable::hb29bc2bb0325fad7:
.Lfunc_begin7:
	.fnstart
	.cfi_startproc
	b	__cpsid
.Lfunc_end7:
	.size	cortex_m::interrupt::disable::hb29bc2bb0325fad7, .Lfunc_end7-cortex_m::interrupt::disable::hb29bc2bb0325fad7
	.cfi_endproc
	.cantunwind
	.fnend

	.section	".text._ZN6minimq2de13packet_reader21PacketReader$LT$_$GT$16read_utf8_string17hd700b0b0ed6ab82eE","ax",%progbits
	.p2align	1
	.type	minimq::de::packet_reader::PacketReader<_>::read_utf8_string::hd700b0b0ed6ab82e,%function
	.code	16
	.thumb_func
minimq::de::packet_reader::PacketReader<_>::read_utf8_string::hd700b0b0ed6ab82e:
.Lfunc_begin8:
	.fnstart
	.cfi_startproc
	.save	{r4, r5, r6, r7, lr}
	push	{r4, r5, r6, r7, lr}
	.cfi_def_cfa_offset 20
	.cfi_offset lr, -4
	.cfi_offset r7, -8
	.cfi_offset r6, -12
	.cfi_offset r5, -16
	.cfi_offset r4, -20
	.setfp	r7, sp, #12
	add	r7, sp, #12
	.cfi_def_cfa r7, 8
	.save	{r11}
	str	r11, [sp, #-4]!
	.cfi_offset r11, -24
	.pad	#24
	sub	sp, #24
	mov	r4, r0
	mov	r0, r1
	mov	r5, r1
	bl	minimq::de::packet_reader::PacketReader<_>::read_u16::h557d607ffb28ea51
	lsls	r1, r0, #31
	bne	.LBB8_3
	movw	r1, #65535
	movt	r1, #512
	cmp	r0, r1
	bls	.LBB8_4
	movw	r0, #257
	strh	r0, [r4]
	add	sp, #24
	ldr	r11, [sp], #4
	pop	{r4, r5, r6, r7, pc}
.LBB8_3:
	lsrs	r0, r0, #8
	b	.LBB8_10
.LBB8_4:
	ldr	r1, [r5, #12]
	cbnz	r1, .LBB8_16
	ldr	r1, [r5, #4]
	cmp	r1, #1
	mov.w	r1, #-1
	str	r1, [r5, #12]
	bne	.LBB8_8
	lsrs	r2, r0, #16
	ldr	r0, [r5, #16]
	ldr	r1, [r5, #8]
	adds	r3, r0, r2
	cmp	r3, r1
	bls	.LBB8_11
	movs	r0, #1
	b	.LBB8_9
.LBB8_8:
	movs	r0, #5
.LBB8_9:
	movs	r1, #0
	str	r1, [r5, #12]
.LBB8_10:
	strb	r0, [r4, #1]
	movs	r0, #1
	strb	r0, [r4]
	add	sp, #24
	ldr	r11, [sp], #4
	pop	{r4, r5, r6, r7, pc}
.LBB8_11:
	cmp.w	r0, #512
	bhi	.LBB8_17
	rsb.w	r1, r0, #512
	cmp	r1, r2
	blo	.LBB8_18
	add	r0, r5
	movs	r6, #0
	add.w	r1, r0, #20
	add	r0, sp, #8
	str	r6, [r5, #12]
	str	r3, [r5, #16]
	bl	core::str::converts::from_utf8::h12390dae7acf1b60
	ldr	r0, [sp, #8]
	cbz	r0, .LBB8_15
	movw	r0, #1281
	strh	r0, [r4]
	add	sp, #24
	ldr	r11, [sp], #4
	pop	{r4, r5, r6, r7, pc}
.LBB8_15:
	ldr	r0, [sp, #12]
	str	r0, [r4, #4]
	ldr	r0, [sp, #16]
	str	r0, [r4, #8]
	strb	r6, [r4]
	add	sp, #24
	ldr	r11, [sp], #4
	pop	{r4, r5, r6, r7, pc}
.LBB8_16:
	movw	r0, :lower16:.Lanon.0c1329e98a8e4daf707f1d3aba20b49b.352
	movw	r3, :lower16:.Lanon.0c1329e98a8e4daf707f1d3aba20b49b.362
	movw	r6, :lower16:.Lanon.0c1329e98a8e4daf707f1d3aba20b49b.13
	movt	r0, :upper16:.Lanon.0c1329e98a8e4daf707f1d3aba20b49b.352
	movt	r3, :upper16:.Lanon.0c1329e98a8e4daf707f1d3aba20b49b.362
	add	r2, sp, #20
	movs	r1, #16
	movt	r6, :upper16:.Lanon.0c1329e98a8e4daf707f1d3aba20b49b.13
	str	r6, [sp]
	bl	core::result::unwrap_failed::he67be68ddf63c991
	.inst.n	0xdefe
.LBB8_17:
	movw	r2, :lower16:.Lanon.0c1329e98a8e4daf707f1d3aba20b49b.14
	mov.w	r1, #512
	movt	r2, :upper16:.Lanon.0c1329e98a8e4daf707f1d3aba20b49b.14
	bl	core::slice::index::slice_start_index_len_fail::haaeda2757c9375c3
	.inst.n	0xdefe
.LBB8_18:
	movw	r3, :lower16:.Lanon.0c1329e98a8e4daf707f1d3aba20b49b.14
	mov	r0, r2
	movt	r3, :upper16:.Lanon.0c1329e98a8e4daf707f1d3aba20b49b.14
	mov	r2, r3
	bl	core::slice::index::slice_end_index_len_fail::h5a91c503035fd6a0
	.inst.n	0xdefe
.Lfunc_end8:
	.size	minimq::de::packet_reader::PacketReader<_>::read_utf8_string::hd700b0b0ed6ab82e, .Lfunc_end8-minimq::de::packet_reader::PacketReader<_>::read_utf8_string::hd700b0b0ed6ab82e
	.cfi_endproc
	.cantunwind
	.fnend

	.section	".text._ZN6minimq2de13packet_reader21PacketReader$LT$_$GT$16read_binary_data17h50471739a6cfcd92E","ax",%progbits
	.p2align	1
	.type	minimq::de::packet_reader::PacketReader<_>::read_binary_data::h50471739a6cfcd92,%function
	.code	16
	.thumb_func
minimq::de::packet_reader::PacketReader<_>::read_binary_data::h50471739a6cfcd92:
.Lfunc_begin9:
	.fnstart
	.cfi_startproc
	.save	{r4, r5, r7, lr}
	push	{r4, r5, r7, lr}
	.cfi_def_cfa_offset 16
	.cfi_offset lr, -4
	.cfi_offset r7, -8
	.cfi_offset r5, -12
	.cfi_offset r4, -16
	.setfp	r7, sp, #8
	add	r7, sp, #8
	.cfi_def_cfa r7, 8
	.pad	#8
	sub	sp, #8
	mov	r4, r0
	mov	r0, r1
	mov	r5, r1
	bl	minimq::de::packet_reader::PacketReader<_>::read_u16::h557d607ffb28ea51
	lsls	r1, r0, #31
	bne	.LBB9_5
	ldr	r1, [r5, #12]
	cbnz	r1, .LBB9_11
	ldr	r1, [r5, #4]
	cmp	r1, #1
	mov.w	r1, #-1
	str	r1, [r5, #12]
	bne	.LBB9_6
	lsrs	r0, r0, #16
	ldr	r3, [r5, #16]
	ldr	r1, [r5, #8]
	adds	r2, r3, r0
	cmp	r2, r1
	bls	.LBB9_7
	movs	r0, #1
	strb	r0, [r4, #1]
	b	.LBB9_10
.LBB9_5:
	lsrs	r0, r0, #8
	strb	r0, [r4, #1]
	movs	r0, #1
	strb	r0, [r4]
	add	sp, #8
	pop	{r4, r5, r7, pc}
.LBB9_6:
	movs	r0, #5
	strb	r0, [r4, #1]
	movs	r0, #1
	b	.LBB9_10
.LBB9_7:
	cmp.w	r3, #512
	bhi	.LBB9_12
	rsb.w	r1, r3, #512
	cmp	r1, r0
	blo	.LBB9_13
	adds	r1, r5, r3
	str	r2, [r5, #16]
	adds	r1, #20
	strd	r1, r0, [r4, #4]
	movs	r0, #0
.LBB9_10:
	strb	r0, [r4]
	movs	r0, #0
	str	r0, [r5, #12]
	add	sp, #8
	pop	{r4, r5, r7, pc}
.LBB9_11:
	movw	r0, :lower16:.Lanon.0c1329e98a8e4daf707f1d3aba20b49b.352
	movw	r3, :lower16:.Lanon.0c1329e98a8e4daf707f1d3aba20b49b.362
	movw	r5, :lower16:.Lanon.0c1329e98a8e4daf707f1d3aba20b49b.13
	movt	r0, :upper16:.Lanon.0c1329e98a8e4daf707f1d3aba20b49b.352
	movt	r3, :upper16:.Lanon.0c1329e98a8e4daf707f1d3aba20b49b.362
	add	r2, sp, #4
	movs	r1, #16
	movt	r5, :upper16:.Lanon.0c1329e98a8e4daf707f1d3aba20b49b.13
	str	r5, [sp]
	bl	core::result::unwrap_failed::he67be68ddf63c991
	.inst.n	0xdefe
.LBB9_12:
	movw	r2, :lower16:.Lanon.0c1329e98a8e4daf707f1d3aba20b49b.14
	mov.w	r1, #512
	movt	r2, :upper16:.Lanon.0c1329e98a8e4daf707f1d3aba20b49b.14
	mov	r0, r3
	bl	core::slice::index::slice_start_index_len_fail::haaeda2757c9375c3
	.inst.n	0xdefe
.LBB9_13:
	movw	r2, :lower16:.Lanon.0c1329e98a8e4daf707f1d3aba20b49b.14
	movt	r2, :upper16:.Lanon.0c1329e98a8e4daf707f1d3aba20b49b.14
	bl	core::slice::index::slice_end_index_len_fail::h5a91c503035fd6a0
	.inst.n	0xdefe
.Lfunc_end9:
	.size	minimq::de::packet_reader::PacketReader<_>::read_binary_data::h50471739a6cfcd92, .Lfunc_end9-minimq::de::packet_reader::PacketReader<_>::read_binary_data::h50471739a6cfcd92
	.cfi_endproc
	.cantunwind
	.fnend

	.section	".text._ZN6minimq2de13packet_reader21PacketReader$LT$_$GT$8read_u3217h7e1088d9f3552124E","ax",%progbits
	.p2align	1
	.type	minimq::de::packet_reader::PacketReader<_>::read_u32::h7e1088d9f3552124,%function
	.code	16
	.thumb_func
minimq::de::packet_reader::PacketReader<_>::read_u32::h7e1088d9f3552124:
.Lfunc_begin10:
	.fnstart
	.cfi_startproc
	.save	{r7, lr}
	push	{r7, lr}
	.cfi_def_cfa_offset 8
	.cfi_offset lr, -4
	.cfi_offset r7, -8
	.setfp	r7, sp
	mov	r7, sp
	.cfi_def_cfa_register r7
	.pad	#8
	sub	sp, #8
	ldr	r1, [r0, #12]
	cbnz	r1, .LBB10_9
	ldr	r1, [r0, #4]
	cmp	r1, #1
	mov.w	r1, #-1
	str	r1, [r0, #12]
	bne	.LBB10_4
	ldr	r3, [r0, #16]
	ldr	r2, [r0, #8]
	adds	r1, r3, #4
	cmp	r1, r2
	bls	.LBB10_6
	movs	r2, #1
	b	.LBB10_5
.LBB10_4:
	movs	r2, #5
.LBB10_5:
	movs	r1, #0
	str	r1, [r0, #12]
	movs	r3, #1
	orr.w	r0, r3, r2, lsl #8
	add	sp, #8
	pop	{r7, pc}
.LBB10_6:
	cmp.w	r3, #512
	bhi	.LBB10_10
	cmp.w	r3, #508
	bhi	.LBB10_11
	adds	r2, r0, r3
	movs	r3, #0
	ldr	r2, [r2, #20]
	strd	r3, r1, [r0, #12]
	rev	r1, r2
	orr.w	r0, r3, r2, lsl #8
	add	sp, #8
	pop	{r7, pc}
.LBB10_9:
	movw	r0, :lower16:.Lanon.0c1329e98a8e4daf707f1d3aba20b49b.352
	movw	r3, :lower16:.Lanon.0c1329e98a8e4daf707f1d3aba20b49b.362
	movw	r12, :lower16:.Lanon.0c1329e98a8e4daf707f1d3aba20b49b.11
	movt	r0, :upper16:.Lanon.0c1329e98a8e4daf707f1d3aba20b49b.352
	movt	r3, :upper16:.Lanon.0c1329e98a8e4daf707f1d3aba20b49b.362
	add	r2, sp, #4
	movs	r1, #16
	movt	r12, :upper16:.Lanon.0c1329e98a8e4daf707f1d3aba20b49b.11
	str.w	r12, [sp]
	bl	core::result::unwrap_failed::he67be68ddf63c991
	.inst.n	0xdefe
.LBB10_10:
	movw	r2, :lower16:.Lanon.0c1329e98a8e4daf707f1d3aba20b49b.12
	mov.w	r1, #512
	movt	r2, :upper16:.Lanon.0c1329e98a8e4daf707f1d3aba20b49b.12
	mov	r0, r3
	bl	core::slice::index::slice_start_index_len_fail::haaeda2757c9375c3
	.inst.n	0xdefe
.LBB10_11:
	movw	r2, :lower16:.Lanon.0c1329e98a8e4daf707f1d3aba20b49b.12
	rsb.w	r1, r3, #512
	movt	r2, :upper16:.Lanon.0c1329e98a8e4daf707f1d3aba20b49b.12
	movs	r0, #4
	bl	core::slice::index::slice_end_index_len_fail::h5a91c503035fd6a0
	.inst.n	0xdefe
.Lfunc_end10:
	.size	minimq::de::packet_reader::PacketReader<_>::read_u32::h7e1088d9f3552124, .Lfunc_end10-minimq::de::packet_reader::PacketReader<_>::read_u32::h7e1088d9f3552124
	.cfi_endproc
	.cantunwind
	.fnend

	.section	".text._ZN6minimq2de13packet_reader21PacketReader$LT$_$GT$8read_u1617h557d607ffb28ea51E","ax",%progbits
	.p2align	1
	.type	minimq::de::packet_reader::PacketReader<_>::read_u16::h557d607ffb28ea51,%function
	.code	16
	.thumb_func
minimq::de::packet_reader::PacketReader<_>::read_u16::h557d607ffb28ea51:
.Lfunc_begin11:
	.fnstart
	.cfi_startproc
	.save	{r7, lr}
	push	{r7, lr}
	.cfi_def_cfa_offset 8
	.cfi_offset lr, -4
	.cfi_offset r7, -8
	.setfp	r7, sp
	mov	r7, sp
	.cfi_def_cfa_register r7
	.pad	#8
	sub	sp, #8
	ldr	r1, [r0, #12]
	cbnz	r1, .LBB11_9
	ldr	r1, [r0, #4]
	cmp	r1, #1
	mov.w	r1, #-1
	str	r1, [r0, #12]
	bne	.LBB11_4
	ldr	r3, [r0, #16]
	ldr	r1, [r0, #8]
	adds	r2, r3, #2
	cmp	r2, r1
	bls	.LBB11_6
	mov.w	r1, #256
	b	.LBB11_5
.LBB11_4:
	mov.w	r1, #1280
.LBB11_5:
	movs	r2, #0
	str	r2, [r0, #12]
	movs	r0, #1
	orrs	r1, r2
	orrs	r0, r1
	add	sp, #8
	pop	{r7, pc}
.LBB11_6:
	cmp.w	r3, #512
	bhi	.LBB11_10
	cmp.w	r3, #510
	bhi	.LBB11_11
	adds	r1, r0, r3
	ldrh	r3, [r1, #20]
	movs	r1, #0
	strd	r1, r2, [r0, #12]
	movw	r2, #65535
	rev	r0, r3
	bic.w	r2, r0, r2
	movs	r0, #0
	orrs	r1, r2
	orrs	r0, r1
	add	sp, #8
	pop	{r7, pc}
.LBB11_9:
	movw	r0, :lower16:.Lanon.0c1329e98a8e4daf707f1d3aba20b49b.352
	movw	r3, :lower16:.Lanon.0c1329e98a8e4daf707f1d3aba20b49b.362
	movw	r12, :lower16:.Lanon.0c1329e98a8e4daf707f1d3aba20b49b.11
	movt	r0, :upper16:.Lanon.0c1329e98a8e4daf707f1d3aba20b49b.352
	movt	r3, :upper16:.Lanon.0c1329e98a8e4daf707f1d3aba20b49b.362
	add	r2, sp, #4
	movs	r1, #16
	movt	r12, :upper16:.Lanon.0c1329e98a8e4daf707f1d3aba20b49b.11
	str.w	r12, [sp]
	bl	core::result::unwrap_failed::he67be68ddf63c991
	.inst.n	0xdefe
.LBB11_10:
	movw	r2, :lower16:.Lanon.0c1329e98a8e4daf707f1d3aba20b49b.12
	mov.w	r1, #512
	movt	r2, :upper16:.Lanon.0c1329e98a8e4daf707f1d3aba20b49b.12
	mov	r0, r3
	bl	core::slice::index::slice_start_index_len_fail::haaeda2757c9375c3
	.inst.n	0xdefe
.LBB11_11:
	movw	r2, :lower16:.Lanon.0c1329e98a8e4daf707f1d3aba20b49b.12
	rsb.w	r1, r3, #512
	movt	r2, :upper16:.Lanon.0c1329e98a8e4daf707f1d3aba20b49b.12
	movs	r0, #2
	bl	core::slice::index::slice_end_index_len_fail::h5a91c503035fd6a0
	.inst.n	0xdefe
.Lfunc_end11:
	.size	minimq::de::packet_reader::PacketReader<_>::read_u16::h557d607ffb28ea51, .Lfunc_end11-minimq::de::packet_reader::PacketReader<_>::read_u16::h557d607ffb28ea51
	.cfi_endproc
	.cantunwind
	.fnend

	.section	".text._ZN6minimq2de13packet_reader21PacketReader$LT$_$GT$15read_properties17hf2ea26764b522615E","ax",%progbits
	.p2align	2
	.type	minimq::de::packet_reader::PacketReader<_>::read_properties::hf2ea26764b522615,%function
	.code	16
	.thumb_func
minimq::de::packet_reader::PacketReader<_>::read_properties::hf2ea26764b522615:
.Lfunc_begin12:
	.fnstart
	.cfi_startproc
	.save	{r4, r5, r6, r7, lr}
	push	{r4, r5, r6, r7, lr}
	.cfi_def_cfa_offset 20
	.cfi_offset lr, -4
	.cfi_offset r7, -8
	.cfi_offset r6, -12
	.cfi_offset r5, -16
	.cfi_offset r4, -20
	.setfp	r7, sp, #12
	add	r7, sp, #12
	.cfi_def_cfa r7, 8
	.save	{r8, r9, r10, r11}
	push.w	{r8, r9, r10, r11}
	.cfi_offset r11, -24
	.cfi_offset r10, -28
	.cfi_offset r9, -32
	.cfi_offset r8, -36
	.pad	#204
	sub	sp, #204
	mov	r5, r1
	mov	r4, r0
	add	r0, sp, #28
	movs	r1, #164
	bl	__aeabi_memclr4
	mov	r0, r5
	bl	minimq::de::packet_reader::PacketReader<_>::read_variable_length_integer::hc402570f88d76cbb
	lsls	r2, r0, #31
	mov	r10, r1
	bne.w	.LBB12_109
	cmp.w	r10, #0
	beq.w	.LBB12_112
	movw	r6, :lower16:.Lswitch.table._ZN6minimq2de13packet_reader21PacketReader$LT$_$GT$15read_properties17hf2ea26764b522615E
	mov.w	r9, #0
	movt	r6, :upper16:.Lswitch.table._ZN6minimq2de13packet_reader21PacketReader$LT$_$GT$15read_properties17hf2ea26764b522615E
	mov.w	r11, #0
.LBB12_3:
	mov	r0, r5
	bl	minimq::de::packet_reader::PacketReader<_>::read_variable_length_integer::hc402570f88d76cbb
	lsls	r2, r0, #31
	bne.w	.LBB12_113
	movs	r0, #0
.LBB12_5:
	cmp	r0, #27
	bhi.w	.LBB12_110
	ldr.w	r2, [r6, r0, lsl #2]
	adds	r0, #1
	cmp	r2, r1
	bne	.LBB12_5
	subs	r1, #1
	movs	r0, #2
	cmp	r1, #41
	bhi.w	.LBB12_111
.LCPI12_0:
	tbh	[pc, r1, lsl #1]
.LJTI12_0:
	.short	(.LBB12_10-(.LCPI12_0+4))/2
	.short	(.LBB12_16-(.LCPI12_0+4))/2
	.short	(.LBB12_18-(.LCPI12_0+4))/2
	.short	(.LBB12_111-(.LCPI12_0+4))/2
	.short	(.LBB12_111-(.LCPI12_0+4))/2
	.short	(.LBB12_111-(.LCPI12_0+4))/2
	.short	(.LBB12_111-(.LCPI12_0+4))/2
	.short	(.LBB12_20-(.LCPI12_0+4))/2
	.short	(.LBB12_22-(.LCPI12_0+4))/2
	.short	(.LBB12_111-(.LCPI12_0+4))/2
	.short	(.LBB12_24-(.LCPI12_0+4))/2
	.short	(.LBB12_111-(.LCPI12_0+4))/2
	.short	(.LBB12_111-(.LCPI12_0+4))/2
	.short	(.LBB12_111-(.LCPI12_0+4))/2
	.short	(.LBB12_111-(.LCPI12_0+4))/2
	.short	(.LBB12_111-(.LCPI12_0+4))/2
	.short	(.LBB12_27-(.LCPI12_0+4))/2
	.short	(.LBB12_29-(.LCPI12_0+4))/2
	.short	(.LBB12_31-(.LCPI12_0+4))/2
	.short	(.LBB12_111-(.LCPI12_0+4))/2
	.short	(.LBB12_33-(.LCPI12_0+4))/2
	.short	(.LBB12_35-(.LCPI12_0+4))/2
	.short	(.LBB12_37-(.LCPI12_0+4))/2
	.short	(.LBB12_43-(.LCPI12_0+4))/2
	.short	(.LBB12_45-(.LCPI12_0+4))/2
	.short	(.LBB12_51-(.LCPI12_0+4))/2
	.short	(.LBB12_111-(.LCPI12_0+4))/2
	.short	(.LBB12_53-(.LCPI12_0+4))/2
	.short	(.LBB12_111-(.LCPI12_0+4))/2
	.short	(.LBB12_111-(.LCPI12_0+4))/2
	.short	(.LBB12_55-(.LCPI12_0+4))/2
	.short	(.LBB12_111-(.LCPI12_0+4))/2
	.short	(.LBB12_62-(.LCPI12_0+4))/2
	.short	(.LBB12_64-(.LCPI12_0+4))/2
	.short	(.LBB12_66-(.LCPI12_0+4))/2
	.short	(.LBB12_68-(.LCPI12_0+4))/2
	.short	(.LBB12_74-(.LCPI12_0+4))/2
	.short	(.LBB12_80-(.LCPI12_0+4))/2
	.short	(.LBB12_83-(.LCPI12_0+4))/2
	.short	(.LBB12_85-(.LCPI12_0+4))/2
	.short	(.LBB12_91-(.LCPI12_0+4))/2
	.short	(.LBB12_97-(.LCPI12_0+4))/2
	.p2align	1
.LBB12_10:
	ldr	r0, [r5, #12]
	cmp	r0, #0
	bne.w	.LBB12_120
	ldr	r0, [r5, #4]
	ldr.w	r8, [sp, #24]
	cmp	r0, #1
	mov.w	r0, #-1
	str	r0, [r5, #12]
	bne.w	.LBB12_116
	ldr	r0, [r5, #16]
	ldr	r2, [r5, #8]
	adds	r3, r0, #1
	cmp	r3, r2
	bhi.w	.LBB12_117
	cmp.w	r0, #512
	bhi.w	.LBB12_121
	beq.w	.LBB12_122
	add	r0, r5
	mov.w	r12, #0
	mov.w	lr, #2
	ldrb	r1, [r0, #20]
	strd	r12, r3, [r5, #12]
	b	.LBB12_60
.LBB12_16:
	mov	r0, r5
	bl	minimq::de::packet_reader::PacketReader<_>::read_u32::h7e1088d9f3552124
	lsls	r2, r0, #31
	bne.w	.LBB12_113
	str	r1, [sp, #16]
	mov.w	lr, #5
	mov.w	r12, #1
	b	.LBB12_58
.LBB12_18:
	add	r0, sp, #192
	mov	r1, r5
	bl	minimq::de::packet_reader::PacketReader<_>::read_utf8_string::hd700b0b0ed6ab82e
	ldrb.w	r0, [sp, #192]
	cmp	r0, #0
	bne.w	.LBB12_115
	ldr	r0, [sp, #196]
	str	r0, [sp, #16]
	ldr	r0, [sp, #200]
	mov.w	r12, #2
	b	.LBB12_57
.LBB12_20:
	add	r0, sp, #192
	mov	r1, r5
	bl	minimq::de::packet_reader::PacketReader<_>::read_utf8_string::hd700b0b0ed6ab82e
	ldrb.w	r0, [sp, #192]
	cmp	r0, #0
	bne.w	.LBB12_115
	ldr	r0, [sp, #196]
	str	r0, [sp, #16]
	ldr	r0, [sp, #200]
	mov.w	r12, #3
	b	.LBB12_57
.LBB12_22:
	add	r0, sp, #192
	mov	r1, r5
	bl	minimq::de::packet_reader::PacketReader<_>::read_binary_data::h50471739a6cfcd92
	ldrb.w	r0, [sp, #192]
	cmp	r0, #0
	bne.w	.LBB12_115
	ldr	r0, [sp, #196]
	str	r0, [sp, #16]
	ldr	r0, [sp, #200]
	mov.w	r12, #4
	b	.LBB12_57
.LBB12_24:
	mov	r0, r5
	bl	minimq::de::packet_reader::PacketReader<_>::read_variable_length_integer::hc402570f88d76cbb
	lsls	r2, r0, #31
	bne.w	.LBB12_113
	cmp	r1, #128
	str	r1, [sp, #16]
	bhs.w	.LBB12_103
	mov.w	lr, #1
	mov.w	r12, #5
	b	.LBB12_58
.LBB12_27:
	mov	r0, r5
	bl	minimq::de::packet_reader::PacketReader<_>::read_u32::h7e1088d9f3552124
	lsls	r2, r0, #31
	bne.w	.LBB12_113
	str	r1, [sp, #16]
	mov.w	lr, #5
	mov.w	r12, #6
	b	.LBB12_58
.LBB12_29:
	add	r0, sp, #192
	mov	r1, r5
	bl	minimq::de::packet_reader::PacketReader<_>::read_utf8_string::hd700b0b0ed6ab82e
	ldrb.w	r0, [sp, #192]
	cmp	r0, #0
	bne.w	.LBB12_115
	ldr	r0, [sp, #196]
	str	r0, [sp, #16]
	ldr	r0, [sp, #200]
	mov.w	r12, #7
	b	.LBB12_57
.LBB12_31:
	mov	r0, r5
	bl	minimq::de::packet_reader::PacketReader<_>::read_u16::h557d607ffb28ea51
	lsls	r1, r0, #31
	bne.w	.LBB12_119
	lsrs	r0, r0, #16
	str	r0, [sp, #8]
	mov.w	lr, #3
	mov.w	r12, #8
	b	.LBB12_58
.LBB12_33:
	add	r0, sp, #192
	mov	r1, r5
	bl	minimq::de::packet_reader::PacketReader<_>::read_utf8_string::hd700b0b0ed6ab82e
	ldrb.w	r0, [sp, #192]
	cmp	r0, #0
	bne.w	.LBB12_115
	ldr	r0, [sp, #196]
	str	r0, [sp, #16]
	ldr	r0, [sp, #200]
	mov.w	r12, #9
	b	.LBB12_57
.LBB12_35:
	add	r0, sp, #192
	mov	r1, r5
	bl	minimq::de::packet_reader::PacketReader<_>::read_binary_data::h50471739a6cfcd92
	ldrb.w	r0, [sp, #192]
	cmp	r0, #0
	bne.w	.LBB12_115
	ldr	r0, [sp, #196]
	str	r0, [sp, #16]
	ldr	r0, [sp, #200]
	mov.w	r12, #10
	b	.LBB12_57
.LBB12_37:
	ldr	r0, [r5, #12]
	cmp	r0, #0
	bne.w	.LBB12_120
	ldr	r0, [r5, #4]
	ldr.w	r8, [sp, #24]
	cmp	r0, #1
	mov.w	r0, #-1
	str	r0, [r5, #12]
	bne.w	.LBB12_116
	ldr	r0, [r5, #16]
	ldr	r2, [r5, #8]
	adds	r3, r0, #1
	cmp	r3, r2
	bhi.w	.LBB12_117
	cmp.w	r0, #512
	bhi.w	.LBB12_121
	beq.w	.LBB12_122
	add	r0, r5
	mov.w	lr, #2
	mov.w	r12, #11
	ldrb	r1, [r0, #20]
	movs	r0, #0
	strd	r0, r3, [r5, #12]
	b	.LBB12_60
.LBB12_43:
	mov	r0, r5
	bl	minimq::de::packet_reader::PacketReader<_>::read_u32::h7e1088d9f3552124
	lsls	r2, r0, #31
	bne.w	.LBB12_113
	str	r1, [sp, #16]
	mov.w	lr, #5
	mov.w	r12, #12
	b	.LBB12_58
.LBB12_45:
	ldr	r0, [r5, #12]
	cmp	r0, #0
	bne.w	.LBB12_120
	ldr	r0, [r5, #4]
	ldr.w	r8, [sp, #24]
	cmp	r0, #1
	mov.w	r0, #-1
	str	r0, [r5, #12]
	bne.w	.LBB12_116
	ldr	r0, [r5, #16]
	ldr	r2, [r5, #8]
	adds	r3, r0, #1
	cmp	r3, r2
	bhi.w	.LBB12_117
	cmp.w	r0, #512
	bhi.w	.LBB12_121
	beq.w	.LBB12_122
	add	r0, r5
	mov.w	lr, #2
	mov.w	r12, #13
	ldrb	r1, [r0, #20]
	movs	r0, #0
	strd	r0, r3, [r5, #12]
	b	.LBB12_60
.LBB12_51:
	add	r0, sp, #192
	mov	r1, r5
	bl	minimq::de::packet_reader::PacketReader<_>::read_utf8_string::hd700b0b0ed6ab82e
	ldrb.w	r0, [sp, #192]
	cmp	r0, #0
	bne.w	.LBB12_115
	ldr	r0, [sp, #196]
	str	r0, [sp, #16]
	ldr	r0, [sp, #200]
	mov.w	r12, #14
	b	.LBB12_57
.LBB12_53:
	add	r0, sp, #192
	mov	r1, r5
	bl	minimq::de::packet_reader::PacketReader<_>::read_utf8_string::hd700b0b0ed6ab82e
	ldrb.w	r0, [sp, #192]
	cmp	r0, #0
	bne.w	.LBB12_115
	ldr	r0, [sp, #196]
	str	r0, [sp, #16]
	ldr	r0, [sp, #200]
	mov.w	r12, #15
	b	.LBB12_57
.LBB12_55:
	add	r0, sp, #192
	mov	r1, r5
	bl	minimq::de::packet_reader::PacketReader<_>::read_utf8_string::hd700b0b0ed6ab82e
	ldrb.w	r0, [sp, #192]
	cmp	r0, #0
	bne.w	.LBB12_115
	ldr	r0, [sp, #196]
	str	r0, [sp, #16]
	ldr	r0, [sp, #200]
	mov.w	r12, #16
.LBB12_57:
	add.w	lr, r0, #3
	str	r0, [sp, #12]
.LBB12_58:
	ldr.w	r8, [sp, #24]
.LBB12_59:
	ldr	r1, [sp, #20]
.LBB12_60:
	cmp.w	r9, #7
	bhi.w	.LBB12_114
	add.w	r2, r9, r9, lsl #2
	add	r0, sp, #28
	add	r11, lr
	str	r1, [sp, #20]
	add.w	r3, r0, r2, lsl #2
	strb.w	r12, [r0, r2, lsl #2]
	ldr	r0, [sp, #8]
	cmp	r11, r10
	strh	r0, [r3, #2]
	ldr	r0, [sp, #16]
	str	r0, [r3, #4]
	ldr	r0, [sp, #12]
	strb	r1, [r3, #1]
	str	r0, [r3, #8]
	ldr	r0, [sp, #4]
	str	r0, [r3, #12]
	ldr	r0, [sp, #188]
	add.w	r9, r0, #1
	str.w	r8, [sp, #24]
	str.w	r8, [r3, #16]
	str.w	r9, [sp, #188]
	bne.w	.LBB12_3
	b	.LBB12_112
.LBB12_62:
	mov	r0, r5
	bl	minimq::de::packet_reader::PacketReader<_>::read_u16::h557d607ffb28ea51
	lsls	r1, r0, #31
	bne.w	.LBB12_119
	lsrs	r0, r0, #16
	str	r0, [sp, #8]
	mov.w	lr, #3
	mov.w	r12, #17
	b	.LBB12_58
.LBB12_64:
	mov	r0, r5
	bl	minimq::de::packet_reader::PacketReader<_>::read_u16::h557d607ffb28ea51
	lsls	r1, r0, #31
	bne.w	.LBB12_119
	lsrs	r0, r0, #16
	str	r0, [sp, #8]
	mov.w	lr, #3
	mov.w	r12, #18
	b	.LBB12_58
.LBB12_66:
	mov	r0, r5
	bl	minimq::de::packet_reader::PacketReader<_>::read_u16::h557d607ffb28ea51
	lsls	r1, r0, #31
	bne.w	.LBB12_119
	lsrs	r0, r0, #16
	str	r0, [sp, #8]
	mov.w	lr, #3
	mov.w	r12, #19
	b	.LBB12_58
.LBB12_68:
	ldr	r0, [r5, #12]
	cmp	r0, #0
	bne.w	.LBB12_120
	ldr	r0, [r5, #4]
	ldr.w	r8, [sp, #24]
	cmp	r0, #1
	mov.w	r0, #-1
	str	r0, [r5, #12]
	bne.w	.LBB12_116
	ldr	r0, [r5, #16]
	ldr	r2, [r5, #8]
	adds	r3, r0, #1
	cmp	r3, r2
	bhi.w	.LBB12_117
	cmp.w	r0, #512
	bhi.w	.LBB12_121
	beq.w	.LBB12_122
	add	r0, r5
	mov.w	lr, #2
	mov.w	r12, #20
	ldrb	r1, [r0, #20]
	movs	r0, #0
	strd	r0, r3, [r5, #12]
	b	.LBB12_60
.LBB12_74:
	ldr	r0, [r5, #12]
	cmp	r0, #0
	bne.w	.LBB12_120
	ldr	r0, [r5, #4]
	ldr.w	r8, [sp, #24]
	cmp	r0, #1
	mov.w	r0, #-1
	str	r0, [r5, #12]
	bne.w	.LBB12_116
	ldr	r0, [r5, #16]
	ldr	r2, [r5, #8]
	adds	r3, r0, #1
	cmp	r3, r2
	bhi.w	.LBB12_117
	cmp.w	r0, #512
	bhi.w	.LBB12_121
	beq.w	.LBB12_122
	add	r0, r5
	mov.w	lr, #2
	mov.w	r12, #21
	ldrb	r1, [r0, #20]
	movs	r0, #0
	strd	r0, r3, [r5, #12]
	b	.LBB12_60
.LBB12_80:
	add	r0, sp, #192
	mov	r1, r5
	bl	minimq::de::packet_reader::PacketReader<_>::read_utf8_string::hd700b0b0ed6ab82e
	ldrb.w	r0, [sp, #192]
	cmp	r0, #0
	bne.w	.LBB12_115
	ldr	r0, [sp, #196]
	str	r0, [sp, #16]
	add	r0, sp, #192
	mov	r1, r5
	ldr.w	r8, [sp, #200]
	bl	minimq::de::packet_reader::PacketReader<_>::read_utf8_string::hd700b0b0ed6ab82e
	ldrb.w	r0, [sp, #192]
	cmp	r0, #0
	bne.w	.LBB12_115
	mov	r1, r8
	str	r1, [sp, #12]
	ldrd	r0, r8, [sp, #196]
	str	r0, [sp, #4]
	add.w	r0, r8, r1
	add.w	lr, r0, #5
	mov.w	r12, #22
	b	.LBB12_59
.LBB12_83:
	mov	r0, r5
	bl	minimq::de::packet_reader::PacketReader<_>::read_u32::h7e1088d9f3552124
	lsls	r2, r0, #31
	bne.w	.LBB12_113
	str	r1, [sp, #16]
	mov.w	lr, #5
	mov.w	r12, #23
	b	.LBB12_58
.LBB12_85:
	ldr	r0, [r5, #12]
	cmp	r0, #0
	bne.w	.LBB12_120
	ldr	r0, [r5, #4]
	ldr.w	r8, [sp, #24]
	cmp	r0, #1
	mov.w	r0, #-1
	str	r0, [r5, #12]
	bne.w	.LBB12_116
	ldr	r0, [r5, #16]
	ldr	r2, [r5, #8]
	adds	r3, r0, #1
	cmp	r3, r2
	bhi.w	.LBB12_117
	cmp.w	r0, #512
	bhi.w	.LBB12_121
	beq.w	.LBB12_122
	add	r0, r5
	mov.w	lr, #2
	mov.w	r12, #24
	ldrb	r1, [r0, #20]
	movs	r0, #0
	strd	r0, r3, [r5, #12]
	b	.LBB12_60
.LBB12_91:
	ldr	r0, [r5, #12]
	cmp	r0, #0
	bne.w	.LBB12_120
	ldr	r0, [r5, #4]
	ldr.w	r8, [sp, #24]
	cmp	r0, #1
	mov.w	r0, #-1
	str	r0, [r5, #12]
	bne	.LBB12_116
	ldr	r0, [r5, #16]
	ldr	r2, [r5, #8]
	adds	r3, r0, #1
	cmp	r3, r2
	bhi	.LBB12_117
	cmp.w	r0, #512
	bhi.w	.LBB12_121
	beq.w	.LBB12_122
	add	r0, r5
	mov.w	lr, #2
	mov.w	r12, #25
	ldrb	r1, [r0, #20]
	movs	r0, #0
	strd	r0, r3, [r5, #12]
	b	.LBB12_60
.LBB12_97:
	ldr	r0, [r5, #12]
	cmp	r0, #0
	bne	.LBB12_120
	ldr	r0, [r5, #4]
	ldr.w	r8, [sp, #24]
	cmp	r0, #1
	mov.w	r0, #-1
	str	r0, [r5, #12]
	bne	.LBB12_116
	ldr	r0, [r5, #16]
	ldr	r2, [r5, #8]
	adds	r3, r0, #1
	cmp	r3, r2
	bhi	.LBB12_117
	cmp.w	r0, #512
	bhi	.LBB12_121
	beq	.LBB12_122
	add	r0, r5
	mov.w	lr, #2
	mov.w	r12, #26
	ldrb	r1, [r0, #20]
	movs	r0, #0
	strd	r0, r3, [r5, #12]
	b	.LBB12_60
.LBB12_103:
	movw	r0, #32767
	ldr.w	r8, [sp, #24]
	cmp	r1, r0
	bhs	.LBB12_105
	mov.w	lr, #2
	mov.w	r12, #5
	b	.LBB12_59
.LBB12_105:
	movw	r0, #65535
	movt	r0, #127
	cmp	r1, r0
	bhs	.LBB12_107
	mov.w	lr, #3
	mov.w	r12, #5
	b	.LBB12_59
.LBB12_107:
	mvn	r0, #-2147483648
	cmp	r1, r0
	bhs	.LBB12_123
	mov.w	lr, #4
	mov.w	r12, #5
	b	.LBB12_59
.LBB12_109:
	lsrs	r0, r0, #8
	orr.w	r0, r0, r10, lsl #24
	b	.LBB12_111
.LBB12_110:
	movs	r0, #2
.LBB12_111:
	strb	r0, [r4, #1]
	movs	r0, #1
	strb	r0, [r4]
	add	sp, #204
	pop.w	{r8, r9, r10, r11}
	pop	{r4, r5, r6, r7, pc}
.LBB12_112:
	adds	r0, r4, #4
	add	r1, sp, #28
	movs	r2, #164
	bl	__aeabi_memcpy4
	movs	r0, #0
	strb	r0, [r4]
	add	sp, #204
	pop.w	{r8, r9, r10, r11}
	pop	{r4, r5, r6, r7, pc}
.LBB12_113:
	lsrs	r0, r0, #8
	orr.w	r0, r0, r1, lsl #24
	b	.LBB12_111
.LBB12_114:
	movs	r0, #5
	b	.LBB12_111
.LBB12_115:
	ldrb.w	r0, [sp, #193]
	b	.LBB12_111
.LBB12_116:
	movs	r0, #5
	b	.LBB12_118
.LBB12_117:
	movs	r0, #1
.LBB12_118:
	movs	r1, #0
	str	r1, [r5, #12]
	b	.LBB12_111
.LBB12_119:
	lsrs	r0, r0, #8
	b	.LBB12_111
.LBB12_120:
	movw	r0, :lower16:.Lanon.0c1329e98a8e4daf707f1d3aba20b49b.352
	movw	r3, :lower16:.Lanon.0c1329e98a8e4daf707f1d3aba20b49b.362
	movw	r6, :lower16:.Lanon.0c1329e98a8e4daf707f1d3aba20b49b.11
	movt	r0, :upper16:.Lanon.0c1329e98a8e4daf707f1d3aba20b49b.352
	movt	r3, :upper16:.Lanon.0c1329e98a8e4daf707f1d3aba20b49b.362
	add	r2, sp, #192
	movs	r1, #16
	movt	r6, :upper16:.Lanon.0c1329e98a8e4daf707f1d3aba20b49b.11
	str	r6, [sp]
	bl	core::result::unwrap_failed::he67be68ddf63c991
	.inst.n	0xdefe
.LBB12_121:
	movw	r2, :lower16:.Lanon.0c1329e98a8e4daf707f1d3aba20b49b.12
	mov.w	r1, #512
	movt	r2, :upper16:.Lanon.0c1329e98a8e4daf707f1d3aba20b49b.12
	bl	core::slice::index::slice_start_index_len_fail::haaeda2757c9375c3
	.inst.n	0xdefe
.LBB12_122:
	movw	r2, :lower16:.Lanon.0c1329e98a8e4daf707f1d3aba20b49b.12
	movs	r0, #1
	movt	r2, :upper16:.Lanon.0c1329e98a8e4daf707f1d3aba20b49b.12
	movs	r1, #0
	bl	core::slice::index::slice_end_index_len_fail::h5a91c503035fd6a0
	.inst.n	0xdefe
.LBB12_123:
	movw	r0, :lower16:.Lanon.1dae7de82751de57b633ec762d574f68.7
	movw	r2, :lower16:.Lanon.1dae7de82751de57b633ec762d574f68.9
	movt	r0, :upper16:.Lanon.1dae7de82751de57b633ec762d574f68.7
	movt	r2, :upper16:.Lanon.1dae7de82751de57b633ec762d574f68.9
	movs	r1, #15
	bl	core::panicking::panic::ha0d68f1d939a874b
	.inst.n	0xdefe
.Lfunc_end12:
	.size	minimq::de::packet_reader::PacketReader<_>::read_properties::hf2ea26764b522615, .Lfunc_end12-minimq::de::packet_reader::PacketReader<_>::read_properties::hf2ea26764b522615
	.cfi_endproc
	.cantunwind
	.fnend

	.section	".text._ZN6minimq2de13packet_reader21PacketReader$LT$_$GT$18probe_fixed_header17h595f40dc1475742dE","ax",%progbits
	.p2align	1
	.type	minimq::de::packet_reader::PacketReader<_>::probe_fixed_header::h595f40dc1475742d,%function
	.code	16
	.thumb_func
minimq::de::packet_reader::PacketReader<_>::probe_fixed_header::h595f40dc1475742d:
.Lfunc_begin13:
	.fnstart
	.cfi_startproc
	.save	{r4, r5, r7, lr}
	push	{r4, r5, r7, lr}
	.cfi_def_cfa_offset 16
	.cfi_offset lr, -4
	.cfi_offset r7, -8
	.cfi_offset r5, -12
	.cfi_offset r4, -16
	.setfp	r7, sp, #8
	add	r7, sp, #8
	.cfi_def_cfa r7, 8
	ldr	r3, [r0]
	cmp	r3, #2
	bhs	.LBB13_2
.LBB13_1:
	movs	r0, #0
	pop	{r4, r5, r7, pc}
.LBB13_2:
	cmp.w	r3, #512
	bhi	.LBB13_22
	ldrsb.w	r2, [r0, #21]
	cmp.w	r2, #-1
	ble	.LBB13_7
	and	r2, r2, #127
	movs	r1, #1
.LBB13_5:
	add	r1, r2
	movs	r3, #1
	adds	r1, #1
	str	r3, [r0, #4]
	str	r1, [r0, #8]
.LBB13_6:
	mov	r0, r3
	pop	{r4, r5, r7, pc}
.LBB13_7:
	sub.w	r12, r3, #1
	cmp.w	r12, #1
	bls	.LBB13_1
	ldrsb.w	lr, [r0, #22]
	cmp.w	lr, #-1
	ble	.LBB13_14
	movs	r1, #2
	movs	r4, #0
	movs	r3, #1
.LBB13_10:
	subs	r5, r1, #1
	cmp	r12, r5
	bls	.LBB13_21
	and	r5, lr, #127
	and	r2, r2, #127
	cmp	r3, #0
	orr.w	r2, r2, r5, lsl #7
	bne	.LBB13_5
	ldrb	r3, [r0, #23]
	cmp	r4, #0
	and	r3, r3, #127
	orr.w	r2, r2, r3, lsl #14
	bne	.LBB13_5
	ldrb	r3, [r0, #24]
	and	r3, r3, #127
	orr.w	r2, r2, r3, lsl #21
	b	.LBB13_5
.LBB13_14:
	cmp.w	r12, #3
	blo	.LBB13_1
	ldrsb.w	r1, [r0, #23]
	cmp.w	r1, #-1
	ble	.LBB13_17
	movs	r1, #3
	movs	r4, #1
	movs	r3, #0
	b	.LBB13_10
.LBB13_17:
	cmp.w	r12, #4
	mov.w	r3, #0
	blo	.LBB13_20
	ldrsb.w	r1, [r0, #24]
	cmp.w	r1, #-1
	ble	.LBB13_6
	movs	r1, #4
	movs	r4, #0
	b	.LBB13_10
.LBB13_20:
	mov	r0, r3
	pop	{r4, r5, r7, pc}
.LBB13_21:
	movw	r2, :lower16:.Lanon.0c1329e98a8e4daf707f1d3aba20b49b.21
	mov	r0, r12
	movt	r2, :upper16:.Lanon.0c1329e98a8e4daf707f1d3aba20b49b.21
	mov	r1, r12
	bl	core::panicking::panic_bounds_check::h693951cbac28abbe
	.inst.n	0xdefe
.LBB13_22:
	movw	r2, :lower16:.Lanon.0c1329e98a8e4daf707f1d3aba20b49b.20
	mov.w	r1, #512
	movt	r2, :upper16:.Lanon.0c1329e98a8e4daf707f1d3aba20b49b.20
	mov	r0, r3
	bl	core::slice::index::slice_end_index_len_fail::h5a91c503035fd6a0
	.inst.n	0xdefe
.Lfunc_end13:
	.size	minimq::de::packet_reader::PacketReader<_>::probe_fixed_header::h595f40dc1475742d, .Lfunc_end13-minimq::de::packet_reader::PacketReader<_>::probe_fixed_header::h595f40dc1475742d
	.cfi_endproc
	.cantunwind
	.fnend

	.section	".text._ZN7smoltcp5iface9interface24Interface$LT$DeviceT$GT$4poll17he6084df7d1efd02cE","ax",%progbits
	.p2align	2
	.type	smoltcp::iface::interface::Interface<DeviceT>::poll::he6084df7d1efd02c,%function
	.code	16
	.thumb_func
smoltcp::iface::interface::Interface<DeviceT>::poll::he6084df7d1efd02c:
.Lfunc_begin14:
	.fnstart
	.cfi_startproc
	.save	{r4, r5, r6, r7, lr}
	push	{r4, r5, r6, r7, lr}
	.cfi_def_cfa_offset 20
	.cfi_offset lr, -4
	.cfi_offset r7, -8
	.cfi_offset r6, -12
	.cfi_offset r5, -16
	.cfi_offset r4, -20
	.setfp	r7, sp, #12
	add	r7, sp, #12
	.cfi_def_cfa r7, 8
	.save	{r8, r9, r10, r11}
	push.w	{r8, r9, r10, r11}
	.cfi_offset r11, -24
	.cfi_offset r10, -28
	.cfi_offset r9, -32
	.cfi_offset r8, -36
	.pad	#980
	sub.w	sp, sp, #980
	mov	r10, r0
	adds	r0, #69
	str	r0, [sp, #232]
	add.w	r0, r10, #68
	str	r0, [sp, #392]
	add	r0, sp, #440
	add.w	r1, r0, #65
	str	r1, [sp, #384]
	add.w	r1, r0, #26
	str	r1, [sp, #380]
	strd	r2, r3, [r10]
	add	r1, sp, #576
	add.w	r2, r10, #84
	str	r2, [sp, #280]
	add.w	r2, r1, #26
	str	r2, [sp, #264]
	adds	r2, r0, #4
	str	r2, [sp, #364]
	add.w	r2, r1, #12
	str	r2, [sp, #288]
	add.w	r2, r1, #8
	str	r2, [sp, #296]
	add	r2, sp, #824
	adds	r3, r2, #1
	str	r3, [sp, #396]
	add	r3, sp, #792
	movw	r9, #37160
	adds	r6, r3, #1
	str	r6, [sp, #228]
	adds	r6, r2, #3
	str	r6, [sp, #224]
	add.w	r6, r1, #18
	str	r6, [sp, #292]
	add.w	r6, r1, #14
	str	r6, [sp, #244]
	add.w	r6, r10, #8
	str	r6, [sp, #400]
	add.w	r6, r10, #60
	str	r6, [sp, #388]
	add.w	r6, r0, #77
	str	r6, [sp, #376]
	add.w	r6, r0, #32
	str	r6, [sp, #372]
	add.w	r6, r2, #24
	str	r6, [sp, #300]
	add.w	r6, r2, #18
	str	r6, [sp, #284]
	add.w	r6, r0, #20
	adds	r0, #5
	str	r0, [sp, #236]
	add.w	r0, r2, #23
	str	r0, [sp, #240]
	adds	r3, #5
	str	r3, [sp, #220]
	adds	r3, r1, #1
	str	r6, [sp, #348]
	adds	r6, r2, #4
	str	r3, [sp, #404]
	add.w	r3, r1, #24
	str	r6, [sp, #276]
	add.w	r6, r1, #16
	str	r3, [sp, #272]
	add.w	r3, r1, #19
	adds	r1, #5
	str	r1, [sp, #304]
	adds	r1, r2, #5
	movt	r9, #16386
	str	r1, [sp, #256]
	add.w	r1, r2, #12
	movw	lr, #6224
	str	r6, [sp, #260]
	str	r3, [sp, #268]
	str	r1, [sp, #252]
	add.w	r1, r2, #48
	str	r1, [sp, #248]
	str.w	r10, [sp, #432]
	movs	r0, #0
	b	.LBB14_3
.LBB14_1:
	ldr.w	r10, [sp, #432]
	movw	lr, #6224
.LBB14_2:
	ldr	r0, [sp, #428]
	cmp	r0, #0
	it	ne
	movne	r0, #1
	orrs	r0, r2
	lsls	r0, r0, #31
	mov.w	r0, #1
	beq.w	.LBB14_452
.LBB14_3:
	ldr.w	r11, [r10, #80]
	movw	r1, #12420
	ldr.w	r6, [r11, r1]
	cmp	r6, #3
	bhi.w	.LBB14_453
	str	r0, [sp, #408]
	movs	r0, #0
	add.w	r4, r11, r1
	str	r0, [sp, #428]
	movw	r0, #12420
.LBB14_5:
	add.w	r8, r11, #6208
	add	r0, r11
	str	r0, [sp, #436]
	add.w	r0, r11, r6, lsl #4
	ldr.w	r1, [r0, lr]
	cmp	r1, #0
	bmi.w	.LBB14_180
.LBB14_6:
	movw	r2, #32768
	movt	r2, #28672
	ands	r1, r2
	cmp.w	r1, #805306368
	beq	.LBB14_8
	add.w	r1, r6, r6, lsl #1
	movw	r2, #6212
	add	r2, r11
	lsls	r3, r6, #4
	add.w	r1, r2, r1, lsl #9
	add	r0, lr
	add.w	r5, r2, r6, lsl #4
	adds	r1, #64
	str	r1, [r2, r3]
	movs	r1, #0
	str	r1, [r5, #4]
	str	r1, [r5, #8]
	mov.w	r1, #-1056964608
	str	r1, [r0]
	bl	__dsb
	adds	r0, r6, #1
	movw	lr, #6224
	str.w	r5, [r9]
	and	r6, r0, #3
	str	r6, [r4]
	add.w	r0, r11, r6, lsl #4
	ldr.w	r1, [r0, lr]
	cmp	r1, #0
	bpl	.LBB14_6
	b.w	.LBB14_180
.LBB14_8:
	ldr.w	r0, [r8]
	cmp	r0, #4
	bhs.w	.LBB14_456
	add.w	r0, r11, r0, lsl #4
	ldr	r0, [r0, #12]
	cmp	r0, #0
	bmi.w	.LBB14_180
	ldr	r0, [sp, #436]
	ldr	r0, [r0]
	cmp	r0, #4
	bhs.w	.LBB14_457
	movw	r1, #6212
	add.w	r12, r11, r1
	add.w	r1, r12, r0, lsl #4
	ldr	r1, [r1, #12]
	bfc	r1, #15, #17
	cmp.w	r1, #1536
	it	hs
	movhs.w	r1, #1536
	cmp	r1, #14
	bhs	.LBB14_16
.LBB14_12:
	ldrd	r10, r9, [sp, #412]
.LBB14_13:
	ldr	r0, [sp, #436]
	ldr	r6, [r0]
	cmp	r6, #3
	bhi.w	.LBB14_458
	add.w	r0, r11, r6, lsl #4
	ldr.w	r1, [r0, lr]
	cmp	r1, #0
	bmi.w	.LBB14_464
	add.w	r1, r6, r6, lsl #1
	add	r0, lr
	lsls	r2, r6, #4
	add.w	r1, r12, r1, lsl #9
	add.w	r4, r12, r6, lsl #4
	adds	r1, #64
	str.w	r1, [r12, r2]
	movs	r1, #0
	str	r1, [r4, #4]
	str	r1, [r4, #8]
	mov.w	r1, #-1056964608
	str	r1, [r0]
	bl	__dsb
	movw	r1, #37160
	adds	r0, r6, #1
	movt	r1, #16386
	and	r0, r0, #3
	movw	lr, #6224
	str	r4, [r1]
	ldr	r2, [sp, #436]
	str.w	r10, [sp, #412]
	str.w	r9, [sp, #416]
	mov	r9, r1
	str	r0, [r2]
	ldr	r0, [sp, #432]
	movw	r2, #12420
	mov	r10, r0
	ldr.w	r11, [r0, #80]
	movw	r0, #12420
	add.w	r4, r11, r2
	ldr.w	r6, [r11, r2]
	cmp	r6, #4
	blo.w	.LBB14_5
	b.w	.LBB14_453
.LBB14_16:
	add.w	r0, r0, r0, lsl #1
	add.w	r2, r12, r0, lsl #9
	add.w	r10, r2, #64
	ldr.w	r2, [r10]
	lsls	r3, r2, #31
	bne	.LBB14_19
	ldr	r5, [sp, #392]
	ldr	r3, [r5]
	lsls	r6, r3, #31
	beq.w	.LBB14_466
	ldrb	r6, [r5, #6]
	lsrs	r3, r3, #8
	ldrh	r5, [r5, #4]
	orr.w	r6, r5, r6, lsl #16
	ldrh.w	r5, [r10, #4]
	bic	r6, r6, #-16777216
	uxth	r5, r5
	orr.w	r3, r3, r6, lsl #24
	eor.w	r6, r5, r6, lsr #8
	eors	r2, r3
	orrs	r2, r6
	bne	.LBB14_30
.LBB14_19:
	add.w	r4, r11, r0, lsl #9
	movw	r0, #6288
	movw	r2, #34525
	ldrh	r0, [r4, r0]
	rev	r0, r0
	lsrs	r0, r0, #16
	cmp	r0, r2
	beq	.LBB14_37
	movw	r2, #2054
	cmp	r0, r2
	beq	.LBB14_31
	cmp.w	r0, #2048
	bne	.LBB14_12
	sub.w	r0, r1, #14
	cmp	r0, #20
	blo	.LBB14_12
	add.w	r8, r10, #14
	movs	r2, #60
	ldrb.w	r1, [r8]
	and.w	r6, r2, r1, lsl #2
	cmp	r0, r6
	blo.w	.LBB14_12
	movw	r2, #6292
	ldrh	r2, [r4, r2]
	rev	r2, r2
	cmp.w	r6, r2, lsr #16
	bhi.w	.LBB14_12
	lsrs	r3, r2, #16
	cmp	r0, r3
	blo.w	.LBB14_12
	and	r0, r1, #240
	cmp	r0, #64
	bne.w	.LBB14_48
	ldr	r0, [sp, #432]
	ldrb.w	r9, [r0, #44]
	cmp.w	r9, #1
	bhi.w	.LBB14_76
	mov	r0, r8
	mov	r1, r6
	mov	r5, r12
	str	r3, [sp, #424]
	bl	smoltcp::wire::ip::checksum::data::hebb229fc732545ff
	uxth	r0, r0
	movw	r1, #65535
	ldr	r3, [sp, #424]
	mov	r12, r5
	movw	lr, #6224
	cmp	r0, r1
	beq.w	.LBB14_76
	movs	r0, #5
	b	.LBB14_78
.LBB14_30:
	mov.w	r10, #0
	mov.w	r9, #0
	movs	r0, #1
	str	r0, [sp, #428]
	b	.LBB14_13
.LBB14_31:
	subs	r1, #14
	cmp	r1, #8
	blo.w	.LBB14_12
	ldrb.w	r2, [r10, #18]
	ldrb.w	r6, [r10, #19]
	adds	r0, r6, r2
	adds	r0, #4
	lsls	r0, r0, #1
	cmp	r0, r1
	bhi.w	.LBB14_12
	movw	r0, #6292
	str.w	r12, [sp, #424]
	add.w	r12, r10, #14
	ldrh	r0, [r4, r0]
	ldrh.w	r3, [r12]
	rev	r5, r0
	subs.w	r0, r3, #256
	lsr.w	r3, r5, #16
	movw	r5, #34525
	it	ne
	movne	r0, #1
	cmp	r3, r5
	ldr	r5, [sp, #432]
	ldrd	r5, r9, [r5]
	str	r5, [sp, #420]
	beq.w	.LBB14_49
	movw	r5, #2054
	cmp	r3, r5
	beq.w	.LBB14_50
	cmp.w	r3, #2048
	bne.w	.LBB14_51
	movs	r3, #0
	b	.LBB14_52
.LBB14_37:
	sub.w	r0, r1, #14
	cmp	r0, #40
	blo.w	.LBB14_12
	ldrh.w	r1, [r10, #18]
	movs	r2, #40
	rev	r1, r1
	add.w	r2, r2, r1, lsr #16
	cmp	r2, r0
	bhi.w	.LBB14_12
	ldrb.w	r0, [r10, #14]
	str.w	r12, [sp, #424]
	and	r0, r0, #240
	cmp	r0, #96
	bne	.LBB14_45
	movw	r0, #6296
	lsr.w	r9, r1, #16
	ldrb	r0, [r4, r0]
	bl	<smoltcp::wire::ip::Protocol as core::convert::From<u8>>::from::h32c43f1d7a16fe9c
	ldr	r6, [sp, #364]
	ldrb.w	r2, [r10, #21]
	str.w	r9, [sp, #440]
	ldr.w	r3, [r10, #22]
	str	r3, [r6]
	ldr.w	r3, [r10, #26]
	str	r3, [r6, #4]
	ldr.w	r3, [r10, #30]
	str	r3, [r6, #8]
	ldr.w	r3, [r10, #34]
	str	r3, [r6, #12]
	ldr	r6, [sp, #348]
	ldr.w	r3, [r10, #38]
	str	r3, [r6]
	ldr.w	r3, [r10, #42]
	str	r3, [r6, #4]
	ldr.w	r3, [r10, #46]
	str	r3, [r6, #8]
	ldr.w	r3, [r10, #50]
	strb.w	r1, [sp, #477]
	ldrb.w	r1, [sp, #444]
	str	r3, [r6, #12]
	strb.w	r0, [sp, #476]
	cmp	r1, #255
	strb.w	r2, [sp, #478]
	beq	.LBB14_45
	movw	r1, :lower16:.Lanon.dc80c87ea47a70125c3d5d93959ab909.7
	mov	r8, r0
	movs	r2, #16
	ldr	r0, [sp, #364]
	movt	r1, :upper16:.Lanon.dc80c87ea47a70125c3d5d93959ab909.7
	bl	memcmp
	cmp	r0, #0
	beq	.LBB14_45
	add	r1, sp, #440
	ldr	r0, [sp, #276]
	ldm	r1!, {r2, r3, r4, r5, r6}
	stm	r0!, {r2, r3, r4, r5, r6}
	ldm.w	r1, {r2, r3, r4, r5, r6}
	stm	r0!, {r2, r3, r4, r5, r6}
	ldr	r0, [sp, #432]
	add.w	r3, r10, #54
	movs	r1, #2
	ldr.w	r10, [sp, #280]
	ldrb.w	r0, [r0, #44]
	add	r4, sp, #824
	strb.w	r1, [sp, #824]
	mov	r1, r10
	mov	r2, r4
	str	r3, [sp, #420]
	str.w	r9, [sp]
	bl	smoltcp::iface::interface::InterfaceInner::raw_socket_filter::h93e48f516552e689
	add	r2, sp, #440
	mov	r12, r4
	mov	r3, r4
	ldm.w	r2!, {r1, r4, r5, r6, lr}
	stm.w	r12!, {r1, r4, r5, r6, lr}
	ldm.w	r2, {r1, r4, r5, r6, lr}
	stm.w	r12, {r1, r4, r5, r6, lr}
	strd	r8, r0, [sp]
	ldr	r0, [sp, #420]
	ldr	r1, [sp, #432]
	strd	r0, r9, [sp, #8]
	add	r0, sp, #576
	mov	r2, r10
	bl	smoltcp::iface::interface::InterfaceInner::process_nxt_hdr::ha5140fab79ee143b
	ldrb.w	r0, [sp, #576]
	cbnz	r0, .LBB14_46
	ldr	r0, [sp, #584]
	cmp	r0, #6
	bne.w	.LBB14_96
	add	r4, sp, #824
	movs	r1, #134
	mov	r0, r4
	bl	__aeabi_memclr4
	movs	r0, #0
	str	r0, [sp, #412]
	movs	r0, #0
	mov.w	r8, #2
	str	r0, [sp, #416]
	movs	r6, #0
	movs	r5, #0
	movs	r0, #0
	str	r0, [sp, #420]
	b	.LBB14_97
.LBB14_45:
	movw	r0, #2049
	strh.w	r0, [sp, #576]
.LBB14_46:
	movs	r0, #1
.LBB14_47:
	ldrd	r10, r9, [sp, #412]
	movw	lr, #6224
	ldr.w	r12, [sp, #424]
	cmp	r0, #0
	bne.w	.LBB14_13
	b	.LBB14_92
.LBB14_48:
	movs	r0, #8
	b	.LBB14_78
.LBB14_49:
	movs	r3, #2
	b	.LBB14_52
.LBB14_50:
	movs	r3, #1
	b	.LBB14_52
.LBB14_51:
	movs	r3, #3
.LBB14_52:
	orrs	r0, r3
	itt	eq
	cmpeq	r2, #6
	cmpeq	r6, #4
	beq	.LBB14_54
	ldrd	r10, r9, [sp, #412]
	ldr.w	r12, [sp, #424]
	b	.LBB14_13
.LBB14_54:
	add.w	r0, r2, #8
	cmp	r0, r1
	bhi.w	.LBB14_474
	adds	r3, r0, r6
	cmp	r3, r1
	bhi.w	.LBB14_475
	add	r3, r2
	cmp	r3, r1
	bhi.w	.LBB14_476
	add.w	r2, r6, r2, lsl #1
	str.w	r9, [sp, #368]
	adds	r2, #8
	adds	r3, r2, r6
	cmp	r3, r1
	bhi.w	.LBB14_477
	movw	r1, #6296
	ldr.w	r5, [r12, r2]
	ldrh.w	r9, [r10, #26]
	ldrh	r6, [r4, r1]
	ldr.w	r4, [r12, r0]
	ldr	r0, [sp, #432]
	mov	r1, r5
	ldr.w	r10, [r10, #22]
	bl	smoltcp::iface::interface::InterfaceInner::has_ip_addr::h39bdf4874bad6135
	cmp	r0, #0
	beq.w	.LBB14_74
	cmp.w	r6, #256
	movw	lr, #6224
	ldr.w	r12, [sp, #424]
	it	ne
	cmpne.w	r6, #512
	bne.w	.LBB14_12
	adds	r0, r4, #1
	beq.w	.LBB14_12
	uxtb	r0, r4
	and	r1, r0, #240
	cmp	r1, #224
	beq.w	.LBB14_12
	cmp	r0, #0
	ldr	r1, [sp, #416]
	beq.w	.LBB14_95
	ands	r0, r10, #1
	bne.w	.LBB14_95
	ldr	r2, [sp, #432]
	movs	r1, #1
	strb.w	r1, [sp, #576]
	ldr	r0, [r2, #56]
	str	r4, [sp, #360]
	str.w	r4, [sp, #577]
	add.w	r1, r0, r0, lsl #3
	ldr	r0, [r2, #52]
	lsls	r4, r1, #1
	str	r5, [sp, #356]
.LBB14_65:
	cmp	r4, #0
	beq.w	.LBB14_98
	add	r1, sp, #576
	add.w	r5, r0, #18
	bl	smoltcp::wire::ip::Cidr::contains_addr::h768e43cd1d234828
	cmp	r0, #0
	sub.w	r4, r4, #18
	mov	r0, r5
	beq	.LBB14_65
	ldr	r0, [sp, #432]
	ldr	r0, [r0, #16]
	cmp	r0, #0
	beq.w	.LBB14_482
	movs	r0, #1
	strb.w	r0, [sp, #576]
	ldr	r0, [sp, #420]
	str	r0, [sp]
	ldr	r0, [sp, #368]
	str	r0, [sp, #4]
	ldr	r0, [sp, #400]
	add	r1, sp, #576
	mov	r2, r10
	mov	r3, r9
	ldr	r4, [sp, #360]
	str.w	r4, [sp, #577]
	bl	smoltcp::iface::neighbor::Cache::fill::hcfe9cbef821d0fb1
	cmp.w	r6, #256
	ldr	r2, [sp, #356]
	bne	.LBB14_74
	ldr	r6, [sp, #432]
	ldrb.w	r0, [r6, #68]
	cmp	r0, #0
	beq.w	.LBB14_483
	ldrh.w	r0, [r6, #69]
	movs	r1, #1
	strh.w	r1, [sp, #576]
	lsls	r0, r0, #16
	str.w	r0, [sp, #578]
	ldr.w	r0, [r6, #71]
	str.w	r0, [sp, #582]
	ldr	r0, [sp, #244]
	str.w	r2, [sp, #586]
	str	r4, [sp, #596]
	strh.w	r9, [r0, #4]
	str.w	r10, [r0]
	ldr.w	r0, [r8]
	cmp	r0, #4
	bhs.w	.LBB14_467
	add.w	r1, r0, r0, lsl #1
	lsls	r2, r0, #4
	add.w	r3, r11, r0, lsl #4
	add.w	r1, r11, r1, lsl #9
	add.w	r0, r1, #64
	str.w	r0, [r11, r2]
	movs	r2, #42
	str	r2, [r3, #8]
	ldrb.w	r2, [r6, #68]
	cbz	r2, .LBB14_73
	ldr	r3, [sp, #232]
	ldrh	r2, [r3, #4]
	ldr	r3, [r3]
	strh	r2, [r0, #10]
	str.w	r3, [r0, #6]
	mov.w	r2, #1544
	str.w	r10, [r0]
	strh.w	r9, [r0, #4]
	adds	r0, #14
	strh.w	r2, [r1, #76]
	add	r1, sp, #824
	str	r0, [sp, #824]
	movs	r0, #28
	str	r0, [sp, #828]
	add	r0, sp, #576
	bl	smoltcp::wire::arp::Repr::emit::h3cd44cb979bfba56
.LBB14_73:
	mov	r0, r11
	bl	stm32h7xx_hal::ethernet::eth::TDesRing<_>::release::h7bafb1196b8ee228
	movs	r0, #1
	str	r0, [sp, #428]
	b	.LBB14_75
.LBB14_74:
	movs	r1, #134
	add	r0, sp, #440
	bl	__aeabi_memclr4
	mov.w	r10, #0
	movs	r0, #1
	str	r0, [sp, #428]
	mov.w	r9, #0
.LBB14_75:
	movw	lr, #6224
	ldr.w	r12, [sp, #424]
	b	.LBB14_13
.LBB14_76:
	movw	r0, #6296
	mvn	r1, #192
	ldrh	r0, [r4, r0]
	tst	r0, r1
	beq	.LBB14_80
	movs	r0, #7
.LBB14_78:
	strb.w	r0, [sp, #577]
	movs	r0, #1
	strb.w	r0, [sp, #576]
	ldrd	r5, r9, [sp, #412]
	cmp	r0, #0
	beq	.LBB14_88
.LBB14_79:
	movs	r0, #1
	mov	r10, r5
	cmp	r0, #0
	bne.w	.LBB14_13
	b	.LBB14_92
.LBB14_80:
	subs	r5, r3, r6
	strd	r9, r12, [sp, #420]
	blo.w	.LBB14_484
	ldrb.w	r0, [r10, #23]
	ldr.w	r4, [r10, #26]
	ldr.w	r9, [r10, #30]
	bl	<smoltcp::wire::ip::Protocol as core::convert::From<u8>>::from::h32c43f1d7a16fe9c
	mov	r2, r0
	ldrb.w	r0, [r10, #22]
	strb.w	r1, [sp, #749]
	adds	r1, r4, #1
	ldr.w	r10, [sp, #432]
	str.w	r9, [sp, #368]
	strd	r5, r4, [sp, #736]
	str.w	r9, [sp, #744]
	strb.w	r2, [sp, #748]
	strb.w	r0, [sp, #750]
	beq	.LBB14_85
	uxtb	r0, r4
	cbz	r0, .LBB14_85
	and	r0, r0, #240
	cmp	r0, #224
	beq	.LBB14_85
	mov	r0, r10
	mov	r1, r4
	str	r5, [sp, #360]
	mov	r4, r2
	bl	smoltcp::iface::interface::InterfaceInner::is_subnet_broadcast::h01a1330f6358acef
	ldr	r2, [sp, #360]
	cmp	r0, #0
	beq.w	.LBB14_99
.LBB14_85:
	movw	r0, #2049
.LBB14_86:
	strh.w	r0, [sp, #576]
	movs	r0, #1
.LBB14_87:
	movw	lr, #6224
	ldr.w	r12, [sp, #424]
	ldrd	r5, r9, [sp, #412]
	cmp	r0, #0
	bne	.LBB14_79
.LBB14_88:
	ldr	r0, [sp, #584]
	str.w	r12, [sp, #424]
	cmp	r0, #6
	bne	.LBB14_90
	add	r4, sp, #824
	movs	r1, #134
	mov	r0, r4
	bl	__aeabi_memclr4
	movs	r5, #0
	mov.w	r8, #2
	mov.w	r9, #0
	movs	r6, #0
	mov.w	r10, #0
	movs	r0, #0
	str	r0, [sp, #420]
	b	.LBB14_91
.LBB14_90:
	str	r0, [sp, #420]
	ldr	r0, [sp, #260]
	add	r4, sp, #824
	movs	r2, #134
	ldrh.w	r9, [r0, #4]
	ldr	r1, [sp, #264]
	ldr	r5, [r0]
	mov	r0, r4
	ldr.w	r10, [sp, #588]
	ldr.w	r6, [sp, #598]
	bl	__aeabi_memcpy
	mov.w	r8, #1
.LBB14_91:
	movs	r2, #134
	add	r0, sp, #440
	mov	r1, r4
	bl	__aeabi_memcpy4
	movs	r0, #0
	movw	lr, #6224
	ldr.w	r12, [sp, #424]
	mov	r1, r10
	mov	r10, r5
	cmp	r0, #0
	bne.w	.LBB14_13
.LBB14_92:
	cmp.w	r8, #2
	beq	.LBB14_94
	ldr	r0, [sp, #420]
	movs	r2, #134
	strd	r0, r1, [sp, #576]
	ldr	r0, [sp, #296]
	add	r1, sp, #440
	str.w	r6, [sp, #590]
	mov	r4, r12
	str.w	r10, [r0]
	strh.w	r9, [r0, #4]
	ldr	r0, [sp, #292]
	bl	__aeabi_memcpy
	ldr	r0, [sp, #432]
	mov	r1, r11
	add	r2, sp, #576
	bl	smoltcp::iface::interface::InterfaceInner::dispatch_ip::h40aab87b8d567aea
	mov	r12, r4
	movw	lr, #6224
.LBB14_94:
	movs	r0, #1
	str	r0, [sp, #428]
	b	.LBB14_13
.LBB14_95:
	ldr.w	r10, [sp, #412]
	mov	r9, r1
	b	.LBB14_13
.LBB14_96:
	str	r0, [sp, #420]
	ldr	r0, [sp, #260]
	add	r4, sp, #824
	movs	r2, #134
	ldrh	r1, [r0, #4]
	ldr	r5, [sp, #588]
	ldr	r0, [r0]
	str	r1, [sp, #416]
	str	r0, [sp, #412]
	mov	r0, r4
	ldr	r1, [sp, #264]
	ldr.w	r6, [sp, #598]
	bl	__aeabi_memcpy
	mov.w	r8, #1
.LBB14_97:
	movs	r2, #134
	add	r0, sp, #440
	mov	r1, r4
	bl	__aeabi_memcpy4
	movs	r0, #0
	mov	r1, r5
	b	.LBB14_47
.LBB14_98:
	ldrd	r10, r9, [sp, #412]
	b	.LBB14_75
.LBB14_99:
	mov	r3, r4
	ldr	r0, [sp, #736]
	ldrd	r1, r4, [sp, #364]
	add.w	r5, r8, r6
	str	r2, [sp]
	str	r0, [r1]
	ldr	r0, [sp, #740]
	str	r0, [r1, #4]
	ldr	r0, [sp, #744]
	str	r0, [r1, #8]
	ldr	r0, [sp, #748]
	str	r0, [r1, #12]
	movs	r0, #1
	strb.w	r0, [sp, #440]
	ldr	r0, [sp, #420]
	ldr	r1, [sp, #280]
	add	r2, sp, #440
	mov	r6, r3
	mov	r3, r5
	bl	smoltcp::iface::interface::InterfaceInner::raw_socket_filter::h93e48f516552e689
	uxtb	r2, r6
	mov	r8, r0
	cmp	r2, #4
	bne	.LBB14_121
	ldrb.w	r0, [r10, #68]
	cmp	r0, #0
	beq	.LBB14_121
	ldr	r1, [sp, #360]
	cmp	r1, #8
	bhs	.LBB14_103
	movs	r0, #4
	movw	lr, #6224
	ldrd	r5, r9, [sp, #412]
	ldr.w	r12, [sp, #424]
	b	.LBB14_107
.LBB14_103:
	ldrh	r0, [r5, #4]
	str	r5, [sp, #356]
	movw	lr, #6224
	ldr.w	r12, [sp, #424]
	ldrd	r5, r9, [sp, #412]
	rev	r0, r0
	cmp.w	r1, r0, lsr #16
	bhs	.LBB14_105
	movs	r0, #4
	b	.LBB14_107
.LBB14_105:
	lsrs	r0, r0, #16
	cmp	r0, #8
	bhs	.LBB14_108
	movs	r0, #8
.LBB14_107:
	strb.w	r0, [sp, #577]
	movs	r0, #1
	strb.w	r0, [sp, #576]
	cmp	r0, #0
	bne.w	.LBB14_79
	b	.LBB14_88
.LBB14_108:
	ldr	r5, [sp, #356]
	ldrh	r0, [r5]
	cmp.w	r0, #17152
	bne	.LBB14_121
	ldr	r0, [sp, #360]
	cmp	r0, #3
	bls.w	.LBB14_485
	ldrh	r0, [r5, #2]
	cmp.w	r0, #17408
	bne	.LBB14_121
	movw	r1, #65144
	ldr.w	r0, [r10, #88]
	movt	r1, #65535
	ldr.w	r12, [r10, #84]
	muls	r0, r1, r0
	movs	r1, #0
.LBB14_112:
	adds	r6, r0, r1
	beq	.LBB14_121
	add.w	r3, r12, r1
	ldr	r5, [r3, #40]
	cmp	r5, #3
	beq.w	.LBB14_163
	cmn.w	r6, #392
	ldr	r5, [sp, #356]
	beq	.LBB14_121
	ldr.w	r5, [r3, #432]
	cmp	r5, #3
	beq.w	.LBB14_164
	cmn.w	r6, #784
	ldr	r5, [sp, #356]
	beq	.LBB14_121
	ldr.w	r5, [r3, #824]
	cmp	r5, #3
	beq.w	.LBB14_165
	cmn.w	r6, #1176
	ldr	r5, [sp, #356]
	beq	.LBB14_121
	ldr.w	r3, [r3, #1216]
	add.w	r1, r1, #1568
	cmp	r3, #3
	bne	.LBB14_112
	add.w	r0, r12, r1
	sub.w	r6, r0, #352
	b	.LBB14_166
.LBB14_121:
	mov	r0, r10
	mov	r1, r4
	str	r2, [sp, #420]
	bl	smoltcp::iface::interface::InterfaceInner::has_ip_addr::h39bdf4874bad6135
	cbnz	r0, .LBB14_124
	adds	r0, r4, #1
	beq	.LBB14_124
	mov	r0, r10
	mov	r1, r4
	bl	smoltcp::iface::interface::InterfaceInner::is_subnet_broadcast::h01a1330f6358acef
	cbz	r0, .LBB14_128
.LBB14_124:
	ldr	r1, [sp, #420]
	cmp	r1, #1
	beq.w	.LBB14_143
.LBB14_125:
	cmp	r1, #3
	add	r0, sp, #824
	beq	.LBB14_136
	cmp	r1, #4
	str	r5, [sp, #356]
	bne	.LBB14_137
	add	r1, sp, #440
	mov	r12, r0
	ldm	r1!, {r2, r3, r4, r5, r6}
	stm.w	r12!, {r2, r3, r4, r5, r6}
	mov	r3, r0
	ldm.w	r1, {r0, r2, r4, r5, r6, lr}
	stm.w	r12, {r0, r2, r4, r5, r6, lr}
	ldr	r0, [sp, #356]
	str	r0, [sp, #4]
	ldr	r0, [sp, #360]
	str	r0, [sp, #8]
	add	r0, sp, #576
	mov	r1, r10
	ldr	r2, [sp, #280]
	str.w	r8, [sp]
	bl	smoltcp::iface::interface::InterfaceInner::process_udp::h5cead8c80c35e914
	b	.LBB14_146
.LBB14_128:
	ldrb.w	r0, [r10, #75]
	cmp	r0, #0
	beq.w	.LBB14_178
	and	r0, r4, #240
	cmp	r0, #224
	beq.w	.LBB14_178
	uxtb	r0, r4
	cmp	r0, #0
	beq.w	.LBB14_178
	movs	r0, #1
	str	r5, [sp, #356]
	strb.w	r0, [sp, #772]
	add	r5, sp, #752
	ldrd	r0, r1, [r10]
	strd	r0, r1, [sp]
	mov	r0, r5
	ldr	r1, [sp, #388]
	add	r2, sp, #772
	str.w	r4, [sp, #773]
	bl	smoltcp::iface::route::Routes::lookup::h2f9b0a604461411e
	ldrb.w	r0, [sp, #752]
	cmp	r0, #3
	beq.w	.LBB14_178
	mov	r0, r5
	add	r2, sp, #792
	ldm	r0!, {r1, r3, r5, r6}
	stm	r2!, {r1, r3, r5, r6}
	ldr.w	r1, [r10, #56]
	ldrb	r0, [r0]
	cmp	r1, #0
	strb	r0, [r2]
	beq.w	.LBB14_178
	ldrb.w	r0, [sp, #792]
	ldr.w	r2, [r10, #52]
	add.w	r1, r1, r1, lsl #3
	cmp	r0, #1
	beq.w	.LBB14_147
	cmp	r0, #2
	bne.w	.LBB14_160
	adds	r6, r2, #1
	lsl.w	r9, r1, #1
	ldr.w	r10, [sp, #432]
	b	.LBB14_140
.LBB14_136:
	add	r1, sp, #440
	mov	r12, r0
	mov	r8, r5
	ldm	r1!, {r2, r3, r4, r5, r6}
	stm.w	r12!, {r2, r3, r4, r5, r6}
	mov	r3, r0
	ldm.w	r1, {r0, r2, r4, r5, r6, lr}
	stm.w	r12, {r0, r2, r4, r5, r6, lr}
	ldr	r0, [sp, #360]
	str	r0, [sp, #4]
	add	r0, sp, #576
	mov	r1, r10
	ldr	r2, [sp, #280]
	str.w	r8, [sp]
	bl	smoltcp::iface::interface::InterfaceInner::process_tcp::h5ff6fe940e837b1a
	b	.LBB14_146
.LBB14_137:
	cmp.w	r8, #0
	beq	.LBB14_144
	movs	r1, #148
	ldr	r0, [sp, #288]
	bl	__aeabi_memclr4
	movs	r0, #6
	str	r0, [sp, #584]
	b	.LBB14_145
.LBB14_139:
	subs.w	r9, r9, #18
	add.w	r6, r6, #18
	beq.w	.LBB14_178
.LBB14_140:
	ldrb	r0, [r6, #-1]
	cmp	r0, #0
	beq	.LBB14_139
	ldr	r0, [sp, #396]
	ldr	r1, [r6, #4]
	ldr	r2, [r6, #8]
	ldr	r5, [r6]
	ldr	r3, [r6, #12]
	str	r2, [r0, #8]
	str	r1, [r0, #4]
	movs	r2, #16
	ldr	r1, [sp, #228]
	str	r3, [r0, #12]
	str	r5, [r0]
	bl	memcmp
	cmp	r0, #0
	bne	.LBB14_139
.LBB14_142:
	ldr	r5, [sp, #356]
	ldr	r1, [sp, #420]
	cmp	r1, #1
	bne.w	.LBB14_125
.LBB14_143:
	add	r2, sp, #824
	add	r1, sp, #440
	mov	r12, r2
	mov	r3, r5
	ldm.w	r1!, {r0, r4, r5, r6, lr}
	stm.w	r12!, {r0, r4, r5, r6, lr}
	ldm.w	r1, {r0, r4, r5, r6, r8, lr}
	stm.w	r12, {r0, r4, r5, r6, r8, lr}
	ldr	r0, [sp, #360]
	str	r0, [sp]
	add	r0, sp, #576
	mov	r1, r10
	bl	smoltcp::iface::interface::InterfaceInner::process_icmpv4::h455ece092990769a
	b	.LBB14_146
.LBB14_144:
	ldr	r6, [sp, #228]
	ldr	r1, [sp, #744]
	ldr	r0, [sp, #748]
	str	r0, [sp, #784]
	str	r0, [r6, #12]
	ldr	r2, [sp, #740]
	ldr	r4, [sp, #360]
	movw	r0, #514
	str	r1, [r6, #8]
	ldr	r3, [sp, #736]
	str	r2, [r6, #4]
	cmp.w	r4, #528
	str	r3, [r6]
	strd	r2, r1, [sp, #776]
	str	r3, [sp, #772]
	mov.w	r2, #17
	it	hs
	movhs.w	r4, #528
	strh.w	r0, [sp, #824]
	ldr	r0, [sp, #224]
	add	r1, sp, #792
	bl	__aeabi_memcpy
	ldr	r0, [sp, #356]
	mov	r1, r10
	strd	r0, r4, [sp, #844]
	ldr	r0, [sp, #296]
	add	r2, sp, #772
	add	r3, sp, #824
	bl	smoltcp::iface::interface::InterfaceInner::icmpv4_reply::haf1573f8e2fbb5a4
.LBB14_145:
	movs	r0, #0
	strb.w	r0, [sp, #576]
.LBB14_146:
	ldrb.w	r0, [sp, #576]
	b	.LBB14_87
.LBB14_147:
	add.w	r0, r2, r1, lsl #1
	ldr.w	r1, [sp, #793]
	adds	r2, #55
	ldr.w	r10, [sp, #432]
	b	.LBB14_149
.LBB14_148:
	adds	r3, #18
	adds	r2, #72
	cmp	r0, r3
	beq.w	.LBB14_178
.LBB14_149:
	mov	r3, r2
	ldrb	r6, [r3, #-55]!
	cbnz	r6, .LBB14_151
	ldr	r6, [r2, #-54]
	cmp	r6, r1
	beq	.LBB14_142
.LBB14_151:
	adds	r3, #18
	cmp	r0, r3
	beq.w	.LBB14_178
	ldrb	r6, [r3]
	cbnz	r6, .LBB14_154
	ldr	r6, [r2, #-36]
	cmp	r6, r1
	beq	.LBB14_142
.LBB14_154:
	adds	r3, #18
	cmp	r0, r3
	beq.w	.LBB14_178
	ldrb	r6, [r3]
	cbnz	r6, .LBB14_157
	ldr	r6, [r2, #-18]
	cmp	r6, r1
	beq	.LBB14_142
.LBB14_157:
	adds	r3, #18
	cmp	r0, r3
	beq.w	.LBB14_178
	ldrb	r6, [r3]
	cmp	r6, #0
	bne	.LBB14_148
	ldr	r6, [r2]
	cmp	r6, r1
	bne	.LBB14_148
	b	.LBB14_142
.LBB14_160:
	lsls	r1, r1, #1
	ldr.w	r10, [sp, #432]
.LBB14_161:
	ldrb	r3, [r2], #18
	cmp	r3, #0
	mov.w	r3, #2
	it	eq
	moveq	r3, #1
	cmp	r3, r0
	beq.w	.LBB14_142
	subs	r1, #18
	bne	.LBB14_161
	b	.LBB14_178
.LBB14_163:
	add.w	r6, r3, #40
	b	.LBB14_166
.LBB14_164:
	add.w	r6, r3, #432
	b	.LBB14_166
.LBB14_165:
	add.w	r6, r3, #824
.LBB14_166:
	ldr	r0, [sp, #448]
	ldr	r2, [sp, #220]
	str.w	r0, [sp, #793]
	movs	r3, #1
	ldrd	r0, r1, [sp, #772]
	str	r0, [r2]
	ldr	r0, [sp, #432]
	strb.w	r3, [sp, #792]
	ldrb.w	r0, [r0, #45]
	str	r1, [r2, #4]
	ldr	r1, [sp, #780]
	str	r1, [r2, #8]
	cmp	r0, #1
	strb.w	r3, [sp, #824]
	ldr	r0, [sp, #452]
	str.w	r0, [sp, #825]
	bhi	.LBB14_174
	ldr	r0, [sp, #360]
	cmp	r0, #5
	bls.w	.LBB14_487
	ldr	r4, [sp, #356]
	movs	r2, #4
	add	r1, sp, #824
	ldrh	r0, [r4, #4]
	rev	r0, r0
	lsrs	r3, r0, #16
	add	r0, sp, #792
	bl	smoltcp::wire::ip::checksum::pseudo_header::ha771da54de6c08b8
	ldrh	r1, [r4, #4]
	ldr	r2, [sp, #360]
	rev	r1, r1
	cmp.w	r2, r1, lsr #16
	lsr.w	r1, r1, #16
	blo.w	.LBB14_486
	mov	r4, r0
	ldr	r0, [sp, #356]
	bl	smoltcp::wire::ip::checksum::data::hebb229fc732545ff
	uxth	r1, r4
	uxtah	r0, r1, r0
	lsrs	r1, r0, #16
	uxtah	r0, r1, r0
	movw	r1, #65535
	add.w	r0, r0, r0, lsr #16
	uxth	r0, r0
	cmp	r0, r1
	beq	.LBB14_174
	ldrb.w	r0, [sp, #792]
	cmp	r0, #1
	bne	.LBB14_173
	ldrb.w	r0, [sp, #824]
	cmp	r0, #1
	bne	.LBB14_173
	ldr	r0, [sp, #356]
	ldrh	r0, [r0, #6]
	cbz	r0, .LBB14_174
.LBB14_173:
	movw	r0, #1281
	b	.LBB14_86
.LBB14_174:
	ldr	r0, [sp, #360]
	cmp	r0, #5
	bls.w	.LBB14_487
	ldr	r0, [sp, #356]
	ldrh	r0, [r0, #4]
	rev	r0, r0
	lsrs	r1, r0, #16
	cmp	r1, #8
	blo.w	.LBB14_488
	ldr	r0, [sp, #360]
	cmp	r0, r1
	blo.w	.LBB14_489
	ldr	r5, [sp, #356]
	subs	r1, #8
	ldrh	r2, [r5, #2]
	ldrh	r0, [r5]
	str	r1, [sp, #8]
	ldr	r1, [sp, #432]
	rev	r2, r2
	rev	r0, r0
	lsrs	r2, r2, #16
	lsrs	r3, r0, #16
	add.w	r0, r6, #8
	add.w	r6, r5, #8
	strd	r2, r6, [sp]
	add	r2, sp, #736
	bl	smoltcp::socket::dhcpv4::Dhcpv4Socket::process::h233a98d8058a82c3
	uxtb	r1, r0
	cmp	r1, #11
	bne	.LBB14_179
.LBB14_178:
	movs	r1, #148
	ldr	r0, [sp, #288]
	bl	__aeabi_memclr4
	movs	r0, #6
	str	r0, [sp, #584]
	movs	r0, #0
	strb.w	r0, [sp, #576]
	b	.LBB14_87
.LBB14_179:
	strb.w	r0, [sp, #577]
	movs	r0, #1
	strb.w	r0, [sp, #576]
	b	.LBB14_87
.LBB14_180:
	ldrd	r8, r0, [r10, #84]
	mov.w	r1, #392
	movs	r2, #0
	mla	r3, r0, r1, r8
.LBB14_181:
	ldr.w	r10, [sp, #432]
.LBB14_182:
	movw	r9, #37160
	mov	r6, r8
	movt	r9, #16386
	movw	lr, #6224
.LBB14_183:
	cmp	r6, r3
	beq.w	.LBB14_2
	ldr	r0, [r6, #40]
	cmp	r0, #4
	add.w	r0, r6, #392
	bne	.LBB14_194
	cmp	r0, r3
	beq.w	.LBB14_2
	ldr.w	r1, [r6, #432]
	add.w	r8, r6, #784
	cmp	r1, #4
	bne	.LBB14_192
	cmp	r8, r3
	beq.w	.LBB14_2
	ldr.w	r0, [r6, #824]
	cmp	r0, #4
	add.w	r0, r6, #1176
	bne	.LBB14_193
	cmp	r0, r3
	beq.w	.LBB14_2
	ldr.w	r0, [r6, #1216]
	add.w	r8, r6, #1568
	cmp	r0, #4
	mov	r6, r8
	beq	.LBB14_183
	sub.w	r6, r8, #392
	b	.LBB14_195
.LBB14_192:
	mov	r6, r0
	b	.LBB14_195
.LBB14_193:
	mov	r6, r8
.LBB14_194:
	mov	r8, r0
.LBB14_195:
	ldrb	r0, [r6]
	str	r2, [sp, #436]
	cmp	r0, #0
	beq	.LBB14_210
	ldrd	r2, r0, [r6, #24]
	adds	r1, r6, #1
	mov	r11, r3
	strd	r2, r0, [sp, #420]
	movs	r2, #17
	add	r0, sp, #824
	ldrd	r5, r4, [r10]
	bl	__aeabi_memcpy
	ldr.w	r0, [r10, #56]
	add.w	r1, r0, r0, lsl #3
	ldr.w	r0, [r10, #52]
	lsl.w	r10, r1, #1
.LBB14_197:
	cmp.w	r10, #0
	beq	.LBB14_200
	add	r1, sp, #824
	add.w	r9, r0, #18
	bl	smoltcp::wire::ip::Cidr::contains_addr::h768e43cd1d234828
	cmp	r0, #0
	sub.w	r10, r10, #18
	mov	r0, r9
	beq	.LBB14_197
	ldrb.w	r0, [sp, #824]
	b	.LBB14_204
.LBB14_200:
	ldrb.w	r0, [sp, #824]
	cmp	r0, #1
	itt	eq
	ldreq.w	r0, [sp, #825]
	addseq.w	r0, r0, #1
	beq	.LBB14_203
	add	r0, sp, #576
	ldr	r1, [sp, #388]
	add	r2, sp, #824
	strd	r5, r4, [sp]
	bl	smoltcp::iface::route::Routes::lookup::h2f9b0a604461411e
	ldrb.w	r0, [sp, #576]
	ldr.w	r10, [sp, #432]
	cmp	r0, #3
	bne	.LBB14_205
	mov	r3, r11
	b	.LBB14_208
.LBB14_203:
	movs	r0, #1
.LBB14_204:
	ldr.w	r10, [sp, #432]
	ldr	r2, [sp, #396]
	b	.LBB14_206
.LBB14_205:
	ldr	r2, [sp, #404]
.LBB14_206:
	ldr	r1, [r2, #12]
	str	r1, [sp, #452]
	ldr	r1, [r2, #8]
	str	r1, [sp, #448]
	ldr	r1, [r2, #4]
	str	r1, [sp, #444]
	ldr	r1, [r2]
	add	r2, sp, #440
	str	r1, [sp, #440]
	ldr	r3, [sp, #404]
	strb.w	r0, [sp, #576]
	ldm	r2, {r0, r1, r2}
	str	r0, [r3]
	ldr.w	r0, [r10, #16]
	cmp	r0, #0
	str	r1, [r3, #4]
	str	r2, [r3, #8]
	ldr	r0, [sp, #452]
	str	r0, [r3, #12]
	beq.w	.LBB14_465
	ldr	r0, [sp, #400]
	add	r1, sp, #576
	mov	r2, r5
	mov	r3, r4
	bl	smoltcp::iface::neighbor::Cache::lookup::hb727a98f0eba979d
	lsls	r0, r0, #24
	mov	r3, r11
	beq	.LBB14_209
.LBB14_208:
	ldr	r0, [sp, #420]
	subs	r0, r5, r0
	ldr	r2, [sp, #436]
	ldr	r0, [sp, #424]
	sbcs.w	r0, r4, r0
	blt.w	.LBB14_182
	b	.LBB14_210
.LBB14_209:
	movs	r0, #0
	strb	r0, [r6]
	ldr	r2, [sp, #436]
.LBB14_210:
	mov	r10, r6
	ldr	r0, [r10, #40]!
.LCPI14_0:
	tbb	[pc, r0]
.LJTI14_0:
	.byte	(.LBB14_212-(.LCPI14_0+4))/2
	.byte	(.LBB14_217-(.LCPI14_0+4))/2
	.byte	(.LBB14_225-(.LCPI14_0+4))/2
	.byte	(.LBB14_228-(.LCPI14_0+4))/2
	.p2align	1
.LBB14_212:
	ldr.w	r9, [r10, #48]
	cmp.w	r9, #0
	beq.w	.LBB14_181
	ldr.w	r1, [r10, #40]
	cmp	r1, #0
	beq.w	.LBB14_460
	ldr.w	r0, [r10, #44]
	cmp	r0, r1
	bhs.w	.LBB14_462
	ldr.w	lr, [r10, #36]
	str	r3, [sp, #424]
	adds	r2, r0, #1
	ldrb.w	r4, [r10, #69]
	add.w	r3, lr, r0, lsl #3
	str	r4, [sp, #420]
	udiv	r5, r2, r1
	ldrb	r3, [r3, #4]
	mls	r12, r5, r1, r2
	ldrb.w	r2, [r10, #70]
	cmp	r3, #0
	str	r2, [sp, #352]
	beq.w	.LBB14_259
	ldrd	r11, r4, [r10, #56]
	ldr.w	r5, [r10, #64]
	mov	r2, r12
	b	.LBB14_282
.LBB14_217:
	ldrb.w	r0, [r10, #88]
	ldrb.w	lr, [r10, #89]
	cmp	r0, #0
	ldr.w	r12, [r10, #48]
	it	eq
	moveq.w	lr, #64
	cmp.w	r12, #0
	beq.w	.LBB14_181
	ldr.w	r9, [r10, #40]
	cmp.w	r9, #0
	beq.w	.LBB14_460
	ldr.w	r0, [r10, #44]
	cmp	r0, r9
	bhs.w	.LBB14_461
	ldr.w	r1, [r10, #36]
	add.w	r5, r0, r0, lsl #1
	str	r3, [sp, #424]
	adds	r2, r0, #1
	add.w	r3, r1, r5, lsl #3
	str	r1, [sp, #420]
	udiv	r4, r2, r9
	ldrb	r3, [r3, #6]
	mls	r1, r4, r9, r2
	ldrh.w	r11, [r10, #68]
	cmp	r3, #3
	strd	r11, lr, [sp, #184]
	bne.w	.LBB14_255
	mov	lr, r1
	ldr.w	r2, [r10, #64]
	ldrd	r1, r0, [r10, #56]
	subs	r4, r1, r0
	cmp	r2, r4
	it	ls
	movls	r4, r2
	adds	r3, r4, r0
	bhs.w	.LBB14_478
	cmp	r3, r1
	bhi.w	.LBB14_479
	ldr	r3, [sp, #420]
	mov	r11, r1
	ldr.w	r3, [r3, r5, lsl #3]
	cmp	r4, r3
	it	lo
	movlo	r3, r4
	cmp	r1, #0
	beq.w	.LBB14_263
	add	r0, r3
	udiv	r4, r0, r11
	mls	r5, r4, r11, r0
	b	.LBB14_264
.LBB14_225:
	ldrb.w	r0, [r6, #338]
	cmp	r0, #0
	beq.w	.LBB14_181
	cmp	r0, #1
	add.w	r9, r6, #336
	bne.w	.LBB14_236
	ldrb.w	r0, [r9, #3]
	cmp	r0, #0
	bne.w	.LBB14_237
	b	.LBB14_181
.LBB14_228:
	ldr	r2, [sp, #392]
	ldr	r0, [r2]
	lsls	r1, r0, #31
	beq.w	.LBB14_455
	ldr.w	r10, [sp, #432]
	movw	r9, #24861
	str	r3, [sp, #424]
	movt	r9, #15417
	ldrd	r1, r12, [r10, #24]
	movw	r3, #64748
	umull	r11, r5, r1, r9
	movt	r3, #47918
	ldrb	r4, [r2, #6]
	mla	lr, r1, r3, r5
	ldrh	r5, [r2, #4]
	movw	r2, #61241
	mul	r1, r12, r9
	movt	r2, #30096
	movs	r3, #29
	adds.w	r2, r2, r11
	orr.w	r12, r5, r4, lsl #16
	adc.w	r1, r1, lr
	lsrs	r0, r0, #8
	strd	r2, r1, [r10, #24]
	lsl.w	lr, r1, #1
	ldr	r4, [sp, #376]
	sub.w	r1, r3, r1, lsr #29
	movs	r3, #0
	eor	r5, r1, #31
	lsr.w	r1, r2, r1
	ldr	r2, [sp, #380]
	lsl.w	r5, lr, r5
	orr.w	r9, r1, r5
	lsr.w	r1, r12, #8
	strh	r1, [r2, #4]
	orr.w	r0, r0, r12, lsl #24
	str	r0, [r2]
	ldr	r2, [sp, #372]
	str	r3, [r4]
	movs	r5, #1
	strd	r3, r3, [r2]
	str	r3, [r2, #8]
	strb	r3, [r2, #12]
	ldr	r2, [sp, #384]
	str	r3, [r4, #4]
	str	r0, [r2]
	movw	r0, :lower16:.Lanon.0c1329e98a8e4daf707f1d3aba20b49b.216
	strh	r1, [r2, #4]
	ldrh.w	r1, [r10, #32]
	movt	r0, :upper16:.Lanon.0c1329e98a8e4daf707f1d3aba20b49b.216
	str	r0, [sp, #444]
	add.w	r0, r6, #48
	movs	r2, #3
	str	r3, [r4, #8]
	subs	r1, #82
	strh	r3, [r4, #12]
	strb.w	r3, [sp, #489]
	str.w	r3, [sp, #494]
	strh.w	r3, [sp, #498]
	strb.w	r5, [sp, #504]
	strb.w	r3, [sp, #511]
	str	r2, [sp, #448]
	movs	r2, #2
	strb.w	r2, [sp, #516]
	strh.w	r1, [sp, #462]
	ldr	r1, [r0]
	cmp	r1, #0
	strb.w	r3, [sp, #464]
	str.w	r9, [sp, #440]
	strh.w	r5, [sp, #460]
	str	r3, [sp, #452]
	beq.w	.LBB14_248
	cmp	r1, #1
	ldr.w	r12, [r0, #4]
	bne.w	.LBB14_252
	ldrd	r3, r4, [r10]
	ldrd	r5, r2, [r6, #56]
	subs	r3, r3, r5
	sbcs.w	r2, r4, r2
	blt.w	.LBB14_254
	ldrh.w	r11, [r6, #64]
	cmp.w	r11, #4
	bhi.w	.LBB14_256
	movs	r1, #2
	strb.w	r1, [sp, #464]
	ldr.w	r1, [r0, #26]
	ldr.w	r0, [r0, #22]
	add	r4, sp, #440
	str	r0, [sp, #512]
	mov	r0, r4
	movs	r2, #1
	strb.w	r2, [sp, #499]
	str	r1, [sp, #500]
	movs	r1, #1
	str	r1, [sp, #420]
	strb.w	r2, [sp, #511]
	bl	smoltcp::wire::dhcpv4::Repr::buffer_len::hbab4115fcbcda0ba
	adds	r0, #8
	str	r0, [sp, #828]
	movs	r0, #0
	str	r0, [sp, #832]
	mov.w	r0, #-1
	str	r0, [sp, #836]
	movs	r0, #4
	strb.w	r0, [sp, #840]
	movs	r0, #64
	strb.w	r0, [sp, #842]
	movs	r0, #68
	movs	r2, #92
	movt	r0, #67
	str	r0, [sp, #844]
	ldr	r0, [sp, #300]
	mov	r1, r4
	bl	__aeabi_memcpy4
	movs	r0, #5
	str	r0, [sp, #824]
	add	r0, sp, #576
	add	r1, sp, #824
	bl	smoltcp::iface::interface::IpPacket::ip_repr::h34c58f58187ffea8
	ldrb.w	r0, [sp, #576]
	cmp	r0, #0
	beq.w	.LBB14_345
	cmp	r0, #1
	bne.w	.LBB14_346
	ldr	r1, [sp, #288]
	b.w	.LBB14_347
.LBB14_236:
	ldr.w	r0, [r9, #15]
	str	r0, [sp, #588]
	ldr.w	r0, [r9, #11]
	str	r0, [sp, #584]
	ldr.w	r0, [r9, #7]
	str	r0, [sp, #580]
	ldr.w	r0, [r9, #3]
	movw	r1, :lower16:.Lanon.dc80c87ea47a70125c3d5d93959ab909.7
	str	r0, [sp, #576]
	mov	r4, r2
	movs	r2, #16
	add	r0, sp, #576
	movt	r1, :upper16:.Lanon.dc80c87ea47a70125c3d5d93959ab909.7
	mov	r5, r3
	bl	memcmp
	mov	r2, r4
	mov	r3, r5
	cmp	r0, #0
	beq.w	.LBB14_181
.LBB14_237:
	ldrh.w	r0, [r9]
	cmp	r0, #0
	beq.w	.LBB14_181
	ldrd	r0, r1, [r6, #152]
	eor	r0, r0, #1
	ldr.w	r10, [sp, #432]
	orrs	r0, r1
	str	r3, [sp, #424]
	beq	.LBB14_240
	movs	r2, #1
	ldrd	r0, r1, [r10]
	str.w	r2, [r6, #152]
	movs	r2, #0
	strd	r2, r0, [r6, #156]
	str.w	r1, [r6, #164]
.LBB14_240:
	ldrd	r0, r1, [r6, #120]
	eor	r0, r0, #1
	add.w	r9, r6, #48
	orrs	r0, r1
	bne	.LBB14_242
	ldrd	r2, r3, [r6, #128]
	ldrd	r5, r4, [r6, #160]
	ldrd	r0, r1, [r10]
	adds	r2, r2, r5
	adcs	r3, r4
	subs	r0, r0, r2
	sbcs.w	r0, r1, r3
	bge.w	.LBB14_323
.LBB14_242:
	mov	r0, r9
	mov	r1, r10
	bl	smoltcp::socket::tcp::TcpSocket::seq_to_transmit::hb33c0196cfeb4773
	cmp	r0, #0
	bne.w	.LBB14_324
	ldr.w	r0, [r9]
	cmp	r0, #2
	beq	.LBB14_246
	cmp	r0, #1
	bne.w	.LBB14_324
	ldrd	r0, r1, [r10]
	ldrd	r2, r3, [r6, #56]
	subs	r0, r0, r2
	sbcs.w	r0, r1, r3
	blt.w	.LBB14_324
.LBB14_246:
	ldr.w	r0, [r6, #272]
	str.w	r0, [r6, #280]
	ldrd	r1, r12, [r10]
	ldr.w	r5, [r6, #144]
	movs	r2, #0
	ldrd	r0, r3, [r6, #136]
	ldr.w	r4, [r6, #148]
	adds	r1, r1, r5
	str	r0, [r6, #56]
	adc.w	r0, r4, r12
	strd	r3, r1, [r6, #60]
	ldrsb.w	r1, [r6, #112]
	str	r0, [r6, #68]
	movs	r0, #1
	str	r2, [r6, #48]
	uqadd8	r0, r1, r0
	str	r2, [r6, #52]
	str	r2, [r6, #72]
	uxtb	r1, r0
	str	r2, [r6, #76]
	cmp	r1, #3
	strb.w	r0, [r6, #112]
	blo.w	.LBB14_324
	ldr	r0, [r6, #96]
	movs	r1, #0
	strb.w	r1, [r6, #112]
	lsls	r1, r0, #1
	movw	r2, #10000
	cmp	r1, r2
	movw	r1, #10000
	it	lo
	lsllo	r1, r0, #1
	str	r1, [r6, #96]
	b	.LBB14_324
.LBB14_248:
	ldrd	r0, r1, [r10]
	ldrd	r2, r3, [r6, #56]
	subs	r0, r0, r2
	sbcs.w	r0, r1, r3
	blt	.LBB14_254
	add	r4, sp, #440
	mov	r0, r4
	bl	smoltcp::wire::dhcpv4::Repr::buffer_len::hbab4115fcbcda0ba
	adds	r0, #8
	str	r0, [sp, #828]
	movs	r0, #0
	str	r0, [sp, #832]
	mov.w	r0, #-1
	str	r0, [sp, #836]
	movs	r0, #4
	strb.w	r0, [sp, #840]
	movs	r0, #64
	strb.w	r0, [sp, #842]
	movs	r0, #68
	movs	r2, #92
	movt	r0, #67
	str	r0, [sp, #844]
	ldr	r0, [sp, #300]
	mov	r1, r4
	bl	__aeabi_memcpy4
	movs	r0, #5
	str	r0, [sp, #824]
	add	r0, sp, #576
	add	r1, sp, #824
	bl	smoltcp::iface::interface::IpPacket::ip_repr::h34c58f58187ffea8
	ldrb.w	r0, [sp, #576]
	cmp	r0, #0
	beq.w	.LBB14_337
	cmp	r0, #1
	bne.w	.LBB14_338
	movs	r0, #1
	str	r0, [sp, #420]
	ldr	r1, [sp, #288]
	b.w	.LBB14_339
.LBB14_252:
	ldrd	r4, r3, [r10]
	ldrd	r2, r5, [r6, #64]
	subs	r2, r4, r2
	sbcs.w	r2, r3, r5
	bge	.LBB14_256
	ldrd	r0, r1, [r6, #56]
	subs	r0, r4, r0
	sbcs.w	r0, r3, r1
	bge.w	.LBB14_320
.LBB14_254:
	movs	r0, #0
	str	r0, [sp, #368]
	movs	r0, #0
	str	r0, [sp, #352]
	movs	r0, #0
	mov.w	r12, #11
	mov.w	r9, #3
	mov.w	lr, #0
	movs	r4, #0
	mov.w	r10, #0
	mov.w	r11, #0
	str	r0, [sp, #360]
	movs	r0, #0
	movs	r5, #0
	movs	r1, #0
	str	r0, [sp, #356]
	movs	r0, #0
	str	r0, [sp, #344]
	ldr	r3, [sp, #424]
	ldr	r2, [sp, #436]
	cmp.w	r12, #11
	beq.w	.LBB14_422
	b.w	.LBB14_448
.LBB14_255:
	ldrd	r11, r5, [r10, #56]
	ldr.w	r4, [r10, #64]
	mov	r9, r1
	b	.LBB14_266
.LBB14_256:
	eor	r1, r1, #2
	ldr	r3, [sp, #424]
	orrs.w	r1, r1, r12
	ldr	r2, [sp, #436]
	bne	.LBB14_258
	movs	r1, #1
	strb.w	r1, [r6, #132]
.LBB14_258:
	mov.w	lr, #0
	str.w	lr, [r0]
	str.w	lr, [r0, #4]
	mov.w	r12, #11
	str.w	lr, [r0, #8]
	mov.w	r9, #3
	str.w	lr, [r0, #12]
	movs	r0, #0
	str	r0, [sp, #368]
	movs	r0, #0
	str	r0, [sp, #352]
	movs	r0, #0
	str	r0, [sp, #360]
	movs	r0, #0
	movs	r4, #0
	mov.w	r10, #0
	mov.w	r11, #0
	str	r0, [sp, #356]
	movs	r0, #0
	str	r0, [sp, #344]
	movs	r5, #0
	b	.LBB14_318
.LBB14_259:
	ldrd	r11, r5, [r10, #56]
	ldr.w	r2, [r10, #64]
	sub.w	r4, r11, r5
	cmp	r2, r4
	it	ls
	movls	r4, r2
	adds	r3, r4, r5
	bhs.w	.LBB14_470
	cmp	r3, r11
	bhi.w	.LBB14_468
	ldr.w	r0, [lr, r0, lsl #3]
	cmp	r4, r0
	it	lo
	movlo	r0, r4
	cmp.w	r11, #0
	beq.w	.LBB14_279
	adds	r3, r0, r5
	udiv	r4, r3, r11
	mls	r4, r4, r11, r3
	b	.LBB14_280
.LBB14_263:
	movs	r5, #0
.LBB14_264:
	subs	r0, r2, r3
	subs.w	r12, r12, #1
	ldr	r3, [sp, #424]
	ldr	r2, [sp, #436]
	str.w	r5, [r10, #60]
	str.w	r0, [r10, #64]
	strd	lr, r12, [r10, #44]
	beq.w	.LBB14_181
	mov	r1, r0
	add.w	r0, lr, #1
	udiv	r2, r0, r9
	mov	r4, lr
	mls	r9, r2, r9, r0
	mov	r0, lr
	mov	r4, r1
.LBB14_266:
	sub.w	r1, r11, r5
	cmp	r4, r1
	it	ls
	movls	r1, r4
	adds	r3, r1, r5
	bhs.w	.LBB14_470
	cmp	r3, r11
	bhi.w	.LBB14_468
	add.w	r0, r0, r0, lsl #1
	ldr	r2, [sp, #420]
	str	r5, [sp, #200]
	add.w	r0, r2, r0, lsl #3
	mov	r2, r0
	ldrb	r3, [r2, #6]!
	cmp	r3, #3
	beq.w	.LBB14_469
	ldr	r5, [r0], #4
	str	r3, [sp, #420]
	cmp	r5, r1
	strd	r4, r11, [sp, #192]
	strd	r9, r12, [sp, #176]
	bhi.w	.LBB14_473
	add.w	r4, r10, #4
	ldrh.w	r9, [r0]
	ldr.w	r11, [r10, #52]
	ldr.w	r0, [r4, #66]
	str	r0, [sp, #824]
	ldr	r0, [sp, #432]
	ldr.w	r3, [r4, #70]
	ldr.w	r12, [r4, #77]
	str	r3, [sp, #828]
	ldr	r1, [r0, #80]
	mov.w	r0, #6208
	ldrh.w	r3, [r4, #81]
	ldr	r0, [r1, r0]
	ldr.w	lr, [r4, #73]
	cmp	r0, #4
	strh.w	r3, [sp, #440]
	str.w	lr, [sp, #831]
	bhs.w	.LBB14_456
	ldrb	r3, [r2, #5]
	add.w	r0, r1, r0, lsl #4
	str	r3, [sp, #204]
	ldrb	r3, [r2, #10]
	str	r3, [sp, #356]
	ldrb	r3, [r2, #11]
	str	r3, [sp, #360]
	ldrb	r3, [r2, #12]
	str	r3, [sp, #208]
	ldrb	r3, [r2, #13]
	str	r3, [sp, #368]
	ldrb	r3, [r2, #15]
	ldrb	r4, [r2, #14]
	str	r3, [sp, #212]
	ldr	r0, [r0, #12]
	ldrb	r3, [r2, #16]
	str	r3, [sp, #216]
	cmp.w	r0, #-1
	ldr.w	r3, [r2, #1]
	ldr.w	lr, [r2, #6]
	str	r3, [sp, #352]
	str.w	lr, [sp, #344]
	ble	.LBB14_274
	ldr	r2, [sp, #304]
	str.w	r12, [sp, #592]
	ldr	r0, [sp, #824]
	strh.w	r9, [sp, #626]
	str	r0, [r2]
	ldr	r0, [sp, #828]
	str	r0, [r2, #4]
	ldr.w	r0, [sp, #831]
	str.w	r0, [r2, #7]
	ldrh.w	r0, [sp, #440]
	strh.w	r0, [sp, #596]
	ldr	r0, [sp, #188]
	strb.w	r0, [sp, #617]
	add.w	r0, r5, #8
	str	r0, [sp, #620]
	ldr	r0, [sp, #184]
	strh.w	r0, [sp, #624]
	ldr	r0, [sp, #200]
	add	r0, r11
	str	r0, [sp, #628]
	movs	r0, #3
	str	r0, [sp, #576]
	movs	r0, #0
	strb.w	r0, [sp, #580]
	ldr	r0, [sp, #420]
	strb.w	r0, [sp, #598]
	mov	r11, r0
	ldr	r0, [sp, #204]
	strb.w	r0, [sp, #603]
	ldr	r0, [sp, #356]
	strb.w	r0, [sp, #608]
	ldr	r0, [sp, #360]
	strb.w	r0, [sp, #609]
	ldr	r0, [sp, #208]
	strb.w	r0, [sp, #610]
	ldr	r0, [sp, #368]
	strb.w	r0, [sp, #611]
	ldr	r0, [sp, #212]
	strb.w	r0, [sp, #613]
	ldr	r0, [sp, #216]
	strb.w	r0, [sp, #614]
	movs	r0, #4
	strb.w	r0, [sp, #615]
	ldr	r0, [sp, #432]
	add	r2, sp, #576
	str.w	r3, [sp, #599]
	str.w	lr, [sp, #604]
	mov	r9, r4
	strb.w	r4, [sp, #612]
	str	r5, [sp, #632]
	bl	smoltcp::iface::interface::InterfaceInner::dispatch_ip::h40aab87b8d567aea
	uxtb.w	r12, r0
	movs	r0, #0
	cmp.w	r12, #11
	mov	r1, r12
	it	ne
	movne	r5, r0
	ldr	r3, [sp, #424]
	ldr	r4, [sp, #196]
	cbz	r4, .LBB14_275
.LBB14_273:
	ldr	r0, [sp, #200]
	add	r0, r5
	udiv	r2, r0, r4
	mls	r0, r2, r4, r0
	b	.LBB14_276
.LBB14_274:
	mov	r9, r4
	movs	r5, #0
	mov.w	r12, #11
	movs	r1, #0
	ldrd	r11, r3, [sp, #420]
	ldr	r4, [sp, #196]
	cmp	r4, #0
	bne	.LBB14_273
.LBB14_275:
	movs	r0, #0
.LBB14_276:
	str.w	r0, [r10, #60]
	ldr	r0, [sp, #192]
	ldr	r2, [sp, #436]
	mov	lr, r9
	mov	r9, r11
	ldr	r4, [sp, #208]
	cmp	r1, #11
	sub.w	r0, r0, r5
	ldr	r5, [sp, #204]
	str.w	r0, [r10, #64]
	bne	.LBB14_278
	ldr	r0, [sp, #180]
	ldr	r1, [sp, #176]
	subs	r0, #1
	strd	r1, r0, [r10, #44]
	movs	r1, #11
.LBB14_278:
	ldrd	r11, r10, [sp, #212]
	cmp.w	r12, #11
	beq.w	.LBB14_422
	b.w	.LBB14_448
.LBB14_279:
	movs	r4, #0
.LBB14_280:
	ldr	r3, [sp, #424]
	subs	r5, r2, r0
	subs.w	r9, r9, #1
	ldr	r2, [sp, #436]
	str.w	r4, [r10, #60]
	str.w	r5, [r10, #64]
	strd	r12, r9, [r10, #44]
	beq.w	.LBB14_181
	add.w	r0, r12, #1
	udiv	r2, r0, r1
	mls	r2, r2, r1, r0
	mov	r0, r12
.LBB14_282:
	sub.w	r1, r11, r4
	cmp	r5, r1
	it	ls
	movls	r1, r5
	adds	r3, r1, r4
	bhs.w	.LBB14_471
	cmp	r3, r11
	bhi.w	.LBB14_468
	add.w	r0, lr, r0, lsl #3
	ldr	r3, [r0], #4
	ldrb	r0, [r0]
	cmp	r0, #0
	beq.w	.LBB14_469
	cmp	r3, r1
	bhi.w	.LBB14_472
	cmp	r3, #0
	beq.w	.LBB14_463
	ldr.w	r0, [r10, #52]
	str	r3, [sp, #368]
	strd	r2, r9, [sp, #176]
	add.w	r9, r0, r4
	str	r4, [sp, #184]
	strd	r5, r11, [sp, #356]
	ldrb.w	r5, [r9]
	lsrs	r0, r5, #4
	cmp	r0, #4
	beq.w	.LBB14_298
	cmp	r0, #6
	bne.w	.LBB14_311
	cmp	r3, #40
	blo.w	.LBB14_311
	ldrh.w	r0, [r9, #4]
	rev.w	r11, r0
	movs	r0, #40
	add.w	r0, r0, r11, lsr #16
	cmp	r0, r3
	bhi.w	.LBB14_311
	ldrb.w	r0, [r9, #6]
	bl	<smoltcp::wire::ip::Protocol as core::convert::From<u8>>::from::h32c43f1d7a16fe9c
	ldr.w	r12, [sp, #420]
	uxtb	r0, r0
	cmp	r0, r12
	bne.w	.LBB14_311
	uxtb	r0, r1
	ldr	r3, [sp, #352]
	subs	r0, r0, r3
	subs.w	r2, r12, #10
	clz	r0, r0
	lsr.w	r0, r0, #5
	it	ne
	movne	r2, #1
	orrs	r0, r2
	cmp	r0, #1
	bne.w	.LBB14_311
	and	r0, r5, #240
	cmp	r0, #96
	bne.w	.LBB14_311
	ldrb.w	r0, [r9, #7]
	ldrb.w	r2, [r9, #17]
	str	r0, [sp, #28]
	ldr.w	r0, [r9, #8]
	str	r0, [sp, #344]
	ldr.w	r0, [r9, #12]
	str	r2, [sp, #352]
	ldrb.w	r2, [r9, #18]
	str	r0, [sp, #216]
	ldrb.w	r0, [r9, #16]
	str	r2, [sp, #212]
	ldr.w	r2, [r9, #19]
	str	r2, [sp, #440]
	ldr	r3, [sp, #236]
	ldrb.w	r2, [r9, #23]
	str.w	r12, [sp, #24]
	strb.w	r2, [sp, #444]
	lsr.w	r4, r11, #16
	ldr.w	r2, [r9, #24]
	str	r2, [r3]
	ldr.w	r2, [r9, #28]
	str	r2, [r3, #4]
	ldr.w	r2, [r9, #32]
	str	r2, [r3, #8]
	add.w	r2, r9, #40
	str	r2, [sp, #204]
	ldr.w	r2, [r9, #36]
	str	r2, [r3, #12]
	movs	r5, #2
	mov	r9, r1
	mov	r11, r0
	str	r4, [sp, #208]
.LBB14_295:
	mov	r0, r5
	bl	smoltcp::wire::ip::Repr::buffer_len::h21a6824b18829e4b
	ldr	r0, [sp, #344]
	str	r0, [sp, #836]
	ldr	r0, [sp, #216]
	str	r0, [sp, #840]
	ldr	r0, [sp, #352]
	strb.w	r0, [sp, #845]
	ldr	r0, [sp, #212]
	strb.w	r0, [sp, #846]
	movs	r2, #21
	ldr	r0, [sp, #240]
	add	r1, sp, #440
	strb.w	r5, [sp, #828]
	str	r4, [sp, #832]
	strb.w	r11, [sp, #844]
	bl	__aeabi_memcpy
	ldr	r0, [sp, #24]
	strb.w	r0, [sp, #868]
	ldr	r0, [sp, #28]
	strb.w	r0, [sp, #870]
	ldr	r0, [sp, #204]
	str	r0, [sp, #872]
	ldr	r0, [sp, #208]
	str	r0, [sp, #876]
	movs	r0, #2
	str	r0, [sp, #824]
	add	r0, sp, #576
	add	r1, sp, #824
	strb.w	r9, [sp, #869]
	bl	smoltcp::iface::interface::IpPacket::ip_repr::h34c58f58187ffea8
	ldrb.w	r0, [sp, #576]
	str.w	r9, [sp, #20]
	cmp	r0, #0
	beq.w	.LBB14_437
	cmp	r0, #1
	ldr	r3, [sp, #424]
	ldr	r5, [sp, #360]
	bne.w	.LBB14_438
	mov.w	r9, #1
	ldr	r1, [sp, #288]
	b.w	.LBB14_439
.LBB14_298:
	cmp	r3, #20
	blo	.LBB14_311
	movs	r0, #60
	and.w	r11, r0, r5, lsl #2
	cmp	r3, r11
	blo	.LBB14_311
	ldrh.w	r0, [r9, #2]
	rev	r0, r0
	cmp.w	r11, r0, lsr #16
	bhi	.LBB14_311
	lsrs	r0, r0, #16
	str	r0, [sp, #344]
	cmp	r3, r0
	blo	.LBB14_311
	ldr	r0, [sp, #432]
	ldrb.w	r0, [r0, #44]
	str	r0, [sp, #216]
	ldrb.w	r0, [r9, #9]
	bl	<smoltcp::wire::ip::Protocol as core::convert::From<u8>>::from::h32c43f1d7a16fe9c
	ldr	r3, [sp, #420]
	ldr.w	r12, [sp, #368]
	uxtb	r0, r0
	cmp	r0, r3
	bne	.LBB14_311
	mov	lr, r11
	mov	r2, r1
	cmp	r3, #10
	bne	.LBB14_305
	uxtb	r0, r2
	ldr	r1, [sp, #352]
	cmp	r0, r1
	bne	.LBB14_311
.LBB14_305:
	ldr	r0, [sp, #216]
	lsls	r0, r0, #31
	mov.w	r0, #0
	strh.w	r0, [r9, #10]
	bne	.LBB14_307
	mov	r0, r9
	mov	r1, lr
	str	r2, [sp, #352]
	bl	smoltcp::wire::ip::checksum::data::hebb229fc732545ff
	mvns	r0, r0
	mov	lr, r11
	ldr	r2, [sp, #352]
	ldr.w	r12, [sp, #368]
	rev	r0, r0
	lsrs	r0, r0, #16
	strh.w	r0, [r9, #10]
.LBB14_307:
	and	r0, r5, #240
	str.w	r9, [sp, #576]
	cmp	r0, #64
	str.w	r12, [sp, #580]
	bne	.LBB14_311
	ldr	r0, [sp, #216]
	cmp	r0, #1
	bhi	.LBB14_310
	mov	r0, r9
	mov	r1, lr
	mov	r5, r2
	bl	smoltcp::wire::ip::checksum::data::hebb229fc732545ff
	uxth	r0, r0
	movw	r1, #65535
	mov	lr, r11
	mov	r2, r5
	cmp	r0, r1
	bne	.LBB14_311
.LBB14_310:
	ldrh.w	r0, [r9, #6]
	mvn	r1, #192
	tst	r0, r1
	beq.w	.LBB14_446
.LBB14_311:
	movs	r0, #3
	movs	r3, #0
	str	r0, [sp, #420]
	movs	r1, #0
	movs	r2, #0
	movs	r0, #0
	mov.w	r9, #0
	mov.w	r11, #0
	str	r3, [sp, #352]
	mov.w	r12, #0
	movs	r3, #0
	mov.w	lr, #0
	movs	r5, #0
.LBB14_312:
	ldr	r4, [sp, #308]
	str	r4, [sp, #212]
	ldr	r4, [sp, #316]
	str	r4, [sp, #208]
	ldr	r4, [sp, #328]
	str	r4, [sp, #216]
	ldr	r4, [sp, #324]
	str	r4, [sp, #344]
	ldr	r4, [sp, #336]
	str	r4, [sp, #200]
	ldr	r4, [sp, #320]
	str	r4, [sp, #196]
	ldr	r4, [sp, #332]
	str	r4, [sp, #192]
	ldr	r4, [sp, #312]
	str	r4, [sp, #204]
	ldr	r4, [sp, #340]
	str	r4, [sp, #188]
	strd	r3, r1, [sp, #316]
	strd	r12, lr, [sp, #308]
	strd	r9, r5, [sp, #324]
	mov.w	r12, #11
	movs	r1, #11
	ldrd	r9, r3, [sp, #420]
	ldr	r5, [sp, #360]
	str	r0, [sp, #340]
	ldr	r4, [sp, #368]
	strd	r2, r11, [sp, #332]
.LBB14_313:
	cbz	r5, .LBB14_315
	ldr	r0, [sp, #184]
	add	r0, r4
	udiv	r2, r0, r5
	mls	r0, r2, r5, r0
	b	.LBB14_316
.LBB14_315:
	movs	r0, #0
.LBB14_316:
	ldr	r2, [sp, #436]
	str.w	r0, [r10, #60]
	cmp	r1, #11
	ldr	r0, [sp, #356]
	sub.w	r0, r0, r4
	str.w	r0, [r10, #64]
	bne	.LBB14_319
	ldr	r0, [sp, #176]
	str.w	r0, [r10, #44]
	ldr	r0, [sp, #180]
	ldr.w	lr, [sp, #320]
	subs	r0, #1
	str.w	r0, [r10, #48]
	ldr	r0, [sp, #332]
	str	r0, [sp, #368]
	ldr	r0, [sp, #188]
	ldr.w	r11, [sp, #336]
	ldr	r4, [sp, #340]
	str	r0, [sp, #340]
	ldr	r0, [sp, #192]
	str	r0, [sp, #332]
	ldr	r0, [sp, #196]
	str	r0, [sp, #320]
	ldr	r0, [sp, #200]
	str	r0, [sp, #336]
	ldr	r0, [sp, #344]
	ldr.w	r10, [sp, #324]
	str	r0, [sp, #324]
	ldr	r0, [sp, #308]
	str	r0, [sp, #360]
	ldr	r0, [sp, #316]
	str	r0, [sp, #356]
	ldr	r0, [sp, #312]
	str	r0, [sp, #344]
	ldr	r0, [sp, #204]
	str	r0, [sp, #312]
	ldr	r0, [sp, #216]
	ldr	r5, [sp, #328]
	str	r0, [sp, #328]
	ldr	r0, [sp, #208]
	str	r0, [sp, #316]
	ldr	r0, [sp, #212]
	str	r0, [sp, #308]
.LBB14_318:
	movs	r1, #11
	cmp.w	r12, #11
	beq.w	.LBB14_422
	b.w	.LBB14_448
.LBB14_319:
	ldr	r0, [sp, #332]
	str	r0, [sp, #368]
	ldr	r0, [sp, #188]
	ldr.w	lr, [sp, #320]
	ldr	r4, [sp, #340]
	str	r0, [sp, #340]
	ldr	r0, [sp, #192]
	str	r0, [sp, #332]
	ldr	r0, [sp, #196]
	str	r0, [sp, #320]
	ldr	r0, [sp, #200]
	ldr.w	r10, [sp, #324]
	ldr.w	r11, [sp, #336]
	str	r0, [sp, #336]
	ldr	r0, [sp, #344]
	str	r0, [sp, #324]
	ldr	r0, [sp, #308]
	str	r0, [sp, #360]
	ldr	r0, [sp, #316]
	str	r0, [sp, #356]
	ldr	r0, [sp, #312]
	str	r0, [sp, #344]
	ldr	r0, [sp, #204]
	str	r0, [sp, #312]
	ldr	r0, [sp, #216]
	ldr	r5, [sp, #328]
	str	r0, [sp, #328]
	ldr	r0, [sp, #208]
	str	r0, [sp, #316]
	ldr	r0, [sp, #212]
	str	r0, [sp, #308]
	cmp.w	r12, #11
	beq.w	.LBB14_422
	b.w	.LBB14_448
.LBB14_320:
	movs	r0, #2
	add.w	r11, sp, #440
	strb.w	r0, [sp, #464]
	mov	r0, r11
	ldr	r4, [r6, #72]
	ldr	r5, [r6, #80]
	str	r5, [sp, #472]
	bl	smoltcp::wire::dhcpv4::Repr::buffer_len::hbab4115fcbcda0ba
	adds	r0, #8
	movs	r2, #92
	strd	r0, r5, [sp, #828]
	movs	r0, #4
	strb.w	r0, [sp, #840]
	movs	r0, #64
	strb.w	r0, [sp, #842]
	movs	r0, #68
	mov	r1, r11
	movt	r0, #67
	str	r0, [sp, #844]
	ldr	r0, [sp, #300]
	str	r4, [sp, #836]
	bl	__aeabi_memcpy4
	movs	r0, #5
	str	r0, [sp, #824]
	add	r0, sp, #576
	add	r1, sp, #824
	bl	smoltcp::iface::interface::IpPacket::ip_repr::h34c58f58187ffea8
	ldrb.w	r0, [sp, #576]
	cmp	r0, #0
	beq.w	.LBB14_352
	cmp	r0, #1
	bne.w	.LBB14_353
	movs	r0, #1
	str	r0, [sp, #420]
	ldr	r1, [sp, #288]
	b	.LBB14_354
.LBB14_323:
	movs	r0, #0
	strb.w	r0, [r9, #310]
.LBB14_324:
	mov	r0, r9
	mov	r1, r10
	bl	smoltcp::socket::tcp::TcpSocket::seq_to_transmit::hb33c0196cfeb4773
	cmp	r0, #0
	bne.w	.LBB14_366
	mov	r0, r9
	bl	smoltcp::socket::tcp::TcpSocket::ack_to_transmit::h6a8624e0a5e08feb
	cbz	r0, .LBB14_328
	ldrd	r0, r1, [r6, #184]
	eor	r0, r0, #1
	orrs	r0, r1
	bne.w	.LBB14_366
	ldrd	r0, r1, [r10]
	ldrd	r2, r3, [r6, #192]
	subs	r0, r0, r2
	sbcs.w	r0, r1, r3
	bge.w	.LBB14_366
.LBB14_328:
	ldrb.w	r0, [r9, #310]
	subs	r1, r0, #2
	cmp	r1, #4
	bhi	.LBB14_332
	ldrb.w	r1, [r6, #379]
	ldr.w	r2, [r6, #244]
	ldr.w	r3, [r6, #252]
	subs	r2, r2, r3
	and	r1, r1, #31
	lsr.w	r1, r2, r1
	movw	r2, #65535
	cmp	r1, r2
	it	hs
	movhs	r1, r2
	ldrh.w	r2, [r6, #356]
	uxth	r1, r1
	cmp	r2, r1
	bhs	.LBB14_332
	ldrd	r1, r2, [r6, #184]
	eor	r1, r1, #1
	orrs	r1, r2
	bne.w	.LBB14_366
	ldrd	r1, r2, [r10]
	ldrd	r3, r5, [r6, #192]
	subs	r1, r1, r3
	sbcs.w	r1, r2, r5
	bge.w	.LBB14_366
.LBB14_332:
	cmp	r0, #0
	beq.w	.LBB14_366
	ldrd	r5, r4, [r6, #48]
	ldrd	r0, r1, [r6, #56]
	orrs.w	r2, r5, r4
	ldrd	lr, r12, [r10]
	itt	eq
	eoreq	r2, r0, #1
	orrseq.w	r2, r2, r1
	beq.w	.LBB14_365
.LBB14_334:
	eor	r2, r5, #3
	ldr	r3, [sp, #424]
	orrs	r2, r4
	ldr	r2, [sp, #436]
	bne.w	.LBB14_181
	subs.w	r0, lr, r0
	sbcs.w	r0, r12, r1
	blt.w	.LBB14_181
	mov	r0, r9
	bl	smoltcp::socket::tcp::TcpSocket::reset::h3eed303dba5cd1e6
	ldr	r2, [sp, #436]
	ldr	r3, [sp, #424]
	b.w	.LBB14_181
.LBB14_337:
	ldrb.w	r0, [sp, #594]
	ldr	r1, [sp, #268]
	str	r0, [sp, #420]
	ldrb.w	r0, [sp, #599]
	str	r0, [sp, #160]
	ldrb.w	r0, [sp, #604]
	str	r0, [sp, #152]
	ldrb.w	r0, [sp, #605]
	str	r0, [sp, #144]
	ldrb.w	r0, [sp, #606]
	str	r0, [sp, #172]
	ldrb.w	r0, [sp, #607]
	str	r0, [sp, #168]
	ldrb.w	r0, [sp, #608]
	str	r0, [sp, #164]
	ldrb.w	r0, [sp, #609]
	str	r0, [sp, #156]
	ldrb.w	r0, [sp, #610]
	str	r0, [sp, #148]
	ldr	r0, [sp, #600]
	str	r0, [sp, #140]
	b	.LBB14_339
.LBB14_338:
	ldrb.w	r0, [sp, #604]
	ldr	r1, [sp, #272]
	str	r0, [sp, #160]
	ldrb.w	r0, [sp, #609]
	str	r0, [sp, #152]
	ldrb.w	r0, [sp, #610]
	str	r0, [sp, #144]
	ldrb.w	r0, [sp, #611]
	str	r0, [sp, #172]
	ldrb.w	r0, [sp, #612]
	str	r0, [sp, #168]
	ldrb.w	r0, [sp, #613]
	str	r0, [sp, #164]
	ldrb.w	r0, [sp, #614]
	str	r0, [sp, #156]
	ldrb.w	r0, [sp, #615]
	str	r0, [sp, #148]
	ldr.w	r0, [sp, #605]
	str	r0, [sp, #140]
	movs	r0, #2
	str	r0, [sp, #420]
.LBB14_339:
	ldr.w	r4, [r10, #80]
	mov.w	r0, #6208
	ldr	r2, [sp, #436]
	ldr	r0, [r4, r0]
	cmp	r0, #4
	bhs.w	.LBB14_456
	add.w	r0, r4, r0, lsl #4
	ldr	r0, [r0, #12]
	cmp.w	r0, #-1
	ldr	r0, [r1]
	str	r0, [sp, #352]
	ble	.LBB14_343
	add	r5, sp, #576
	movs	r2, #152
	mov	r0, r5
	add	r1, sp, #824
	bl	__aeabi_memcpy8
	mov	r0, r10
	mov	r1, r4
	mov	r2, r5
	bl	smoltcp::iface::interface::InterfaceInner::dispatch_ip::h40aab87b8d567aea
	uxtb.w	r12, r0
	cmp.w	r12, #11
	bne	.LBB14_344
	movw	r2, #38528
	ldrd	r0, r1, [r10]
	movt	r2, #152
	adds	r0, r0, r2
	adc	r1, r1, #0
	b	.LBB14_358
.LBB14_343:
	ldrd	lr, r0, [sp, #164]
	str	r0, [sp, #368]
	movs	r1, #0
	ldrd	r0, r10, [sp, #144]
	str	r0, [sp, #360]
	ldr	r0, [sp, #152]
	mov.w	r12, #11
	ldr	r4, [sp, #172]
	ldr.w	r11, [sp, #156]
	str	r0, [sp, #356]
	ldr	r0, [sp, #140]
	str	r0, [sp, #344]
	ldr	r5, [sp, #160]
	ldrd	r9, r3, [sp, #420]
	cmp.w	r12, #11
	beq.w	.LBB14_422
	b.w	.LBB14_448
.LBB14_344:
	ldrd	lr, r0, [sp, #164]
	str	r0, [sp, #368]
	ldr	r4, [sp, #172]
	ldrd	r0, r10, [sp, #144]
	str	r0, [sp, #360]
	ldr	r0, [sp, #152]
	ldr.w	r11, [sp, #156]
	str	r0, [sp, #356]
	ldr	r0, [sp, #140]
	str	r0, [sp, #344]
	ldr	r5, [sp, #160]
	b	.LBB14_363
.LBB14_345:
	ldrb.w	r0, [sp, #594]
	ldr	r1, [sp, #268]
	str	r0, [sp, #420]
	ldrb.w	r0, [sp, #599]
	str	r0, [sp, #72]
	ldrb.w	r0, [sp, #604]
	str	r0, [sp, #56]
	ldrb.w	r0, [sp, #605]
	str	r0, [sp, #44]
	ldrb.w	r0, [sp, #606]
	str	r0, [sp, #100]
	ldrb.w	r0, [sp, #607]
	str	r0, [sp, #92]
	ldrb.w	r0, [sp, #608]
	str	r0, [sp, #84]
	ldrb.w	r0, [sp, #609]
	str	r0, [sp, #60]
	ldrb.w	r0, [sp, #610]
	str	r0, [sp, #40]
	ldr	r0, [sp, #600]
	str	r0, [sp, #32]
	b	.LBB14_347
.LBB14_346:
	ldrb.w	r0, [sp, #604]
	ldr	r1, [sp, #272]
	str	r0, [sp, #72]
	ldrb.w	r0, [sp, #609]
	str	r0, [sp, #56]
	ldrb.w	r0, [sp, #610]
	str	r0, [sp, #44]
	ldrb.w	r0, [sp, #611]
	str	r0, [sp, #100]
	ldrb.w	r0, [sp, #612]
	str	r0, [sp, #92]
	ldrb.w	r0, [sp, #613]
	str	r0, [sp, #84]
	ldrb.w	r0, [sp, #614]
	str	r0, [sp, #60]
	ldrb.w	r0, [sp, #615]
	str	r0, [sp, #40]
	ldr.w	r0, [sp, #605]
	str	r0, [sp, #32]
	movs	r0, #2
	str	r0, [sp, #420]
.LBB14_347:
	ldr.w	r4, [r10, #80]
	mov.w	r0, #6208
	ldr	r0, [r4, r0]
	cmp	r0, #4
	bhs.w	.LBB14_456
	add.w	r0, r4, r0, lsl #4
	ldr	r0, [r0, #12]
	cmp.w	r0, #-1
	ldr	r0, [r1]
	str	r0, [sp, #352]
	ble	.LBB14_351
	add	r5, sp, #576
	movs	r2, #152
	mov	r0, r5
	add	r1, sp, #824
	bl	__aeabi_memcpy8
	mov	r0, r10
	mov	r1, r4
	mov	r2, r5
	bl	smoltcp::iface::interface::InterfaceInner::dispatch_ip::h40aab87b8d567aea
	uxtb.w	r12, r0
	cmp.w	r12, #11
	bne.w	.LBB14_361
	ubfx	r2, r11, #1, #6
	movw	r4, #19264
	rsb.w	r5, r2, #32
	movt	r4, #76
	ldrd	r0, r1, [r10]
	subs.w	r3, r2, #32
	lsl.w	r2, r4, r2
	lsr.w	r5, r4, r5
	itt	pl
	movpl	r2, #0
	lslpl.w	r5, r4, r3
	adds	r0, r0, r2
	str.w	r9, [r6, #128]
	adcs	r1, r5
	strd	r0, r1, [r6, #56]
	add.w	r0, r11, #1
	strh.w	r0, [r6, #64]
	b	.LBB14_359
.LBB14_351:
	ldr	r0, [sp, #92]
	str	r0, [sp, #368]
	ldrd	r10, r0, [sp, #40]
	str	r0, [sp, #360]
	ldr	r0, [sp, #56]
	movs	r1, #0
	mov.w	r12, #11
	ldr.w	lr, [sp, #84]
	str	r0, [sp, #356]
	ldr	r4, [sp, #100]
	ldr	r0, [sp, #32]
	ldr.w	r11, [sp, #60]
	str	r0, [sp, #344]
	ldr	r5, [sp, #72]
	b	.LBB14_364
.LBB14_352:
	ldrb.w	r0, [sp, #594]
	ldr	r1, [sp, #268]
	str	r0, [sp, #420]
	ldrb.w	r0, [sp, #599]
	str	r0, [sp, #76]
	ldrb.w	r0, [sp, #604]
	str	r0, [sp, #68]
	ldrb.w	r0, [sp, #605]
	str	r0, [sp, #52]
	ldrb.w	r0, [sp, #606]
	str	r0, [sp, #96]
	ldrb.w	r0, [sp, #607]
	str	r0, [sp, #88]
	ldrb.w	r0, [sp, #608]
	str	r0, [sp, #80]
	ldrb.w	r0, [sp, #609]
	str	r0, [sp, #64]
	ldrb.w	r0, [sp, #610]
	str	r0, [sp, #48]
	ldr	r0, [sp, #600]
	str	r0, [sp, #36]
	b	.LBB14_354
.LBB14_353:
	ldrb.w	r0, [sp, #604]
	ldr	r1, [sp, #272]
	str	r0, [sp, #76]
	ldrb.w	r0, [sp, #609]
	str	r0, [sp, #68]
	ldrb.w	r0, [sp, #610]
	str	r0, [sp, #52]
	ldrb.w	r0, [sp, #611]
	str	r0, [sp, #96]
	ldrb.w	r0, [sp, #612]
	str	r0, [sp, #88]
	ldrb.w	r0, [sp, #613]
	str	r0, [sp, #80]
	ldrb.w	r0, [sp, #614]
	str	r0, [sp, #64]
	ldrb.w	r0, [sp, #615]
	str	r0, [sp, #48]
	ldr.w	r0, [sp, #605]
	str	r0, [sp, #36]
	movs	r0, #2
	str	r0, [sp, #420]
.LBB14_354:
	ldr.w	r4, [r10, #80]
	mov.w	r0, #6208
	ldr	r0, [r4, r0]
	cmp	r0, #4
	bhs.w	.LBB14_456
	add.w	r0, r4, r0, lsl #4
	ldr	r0, [r0, #12]
	cmp.w	r0, #-1
	ldr	r0, [r1]
	str	r0, [sp, #352]
	ble	.LBB14_360
	add	r5, sp, #576
	movs	r2, #152
	mov	r0, r5
	add	r1, sp, #824
	bl	__aeabi_memcpy8
	mov	r0, r10
	mov	r1, r4
	mov	r2, r5
	bl	smoltcp::iface::interface::InterfaceInner::dispatch_ip::h40aab87b8d567aea
	uxtb.w	r12, r0
	cmp.w	r12, #11
	bne	.LBB14_362
	ldrd	r0, r1, [r10]
	ldrd	r2, r3, [r6, #64]
	subs	r2, r2, r0
	movw	r12, #34560
	sbcs	r3, r1
	movt	r12, #915
	movs	r4, #0
	adds.w	r2, r2, r3, asr #31
	adc.w	r5, r3, r3, asr #31
	eor.w	r2, r2, r3, asr #31
	eor.w	r3, r5, r3, asr #31
	lsrs.w	r3, r3, #1
	rrx	r2, r2
	subs.w	r5, r12, r2
	sbcs.w	r5, r4, r3
	mov.w	r5, #0
	it	lo
	movlo	r5, #1
	cmp	r5, #0
	itt	eq
	moveq	r2, r12
	moveq	r3, r4
	adds	r0, r0, r2
	adcs	r1, r3
.LBB14_358:
	strd	r0, r1, [r6, #56]
	str.w	r9, [r6, #128]
.LBB14_359:
	ldr	r3, [sp, #424]
	b	.LBB14_424
.LBB14_360:
	ldr	r0, [sp, #88]
	str	r0, [sp, #368]
	ldrd	r10, r0, [sp, #48]
	str	r0, [sp, #360]
	ldr	r0, [sp, #68]
	movs	r1, #0
	mov.w	r12, #11
	ldr.w	lr, [sp, #80]
	str	r0, [sp, #356]
	ldr	r4, [sp, #96]
	ldr	r0, [sp, #36]
	ldr.w	r11, [sp, #64]
	str	r0, [sp, #344]
	ldr	r5, [sp, #76]
	b	.LBB14_364
.LBB14_361:
	ldr	r0, [sp, #92]
	str	r0, [sp, #368]
	ldrd	r10, r0, [sp, #40]
	str	r0, [sp, #360]
	ldr	r0, [sp, #56]
	ldr.w	lr, [sp, #84]
	str	r0, [sp, #356]
	ldr	r4, [sp, #100]
	ldr	r0, [sp, #32]
	ldr.w	r11, [sp, #60]
	str	r0, [sp, #344]
	ldr	r5, [sp, #72]
	b	.LBB14_363
.LBB14_362:
	ldr	r0, [sp, #88]
	str	r0, [sp, #368]
	ldrd	r10, r0, [sp, #48]
	ldr.w	lr, [sp, #80]
	str	r0, [sp, #360]
	ldr	r4, [sp, #96]
	ldr	r0, [sp, #68]
	ldr.w	r11, [sp, #64]
	ldr	r5, [sp, #76]
	str	r0, [sp, #356]
	ldr	r0, [sp, #36]
	str	r0, [sp, #344]
.LBB14_363:
	mov	r1, r12
.LBB14_364:
	ldr	r2, [sp, #436]
	ldrd	r9, r3, [sp, #420]
	cmp.w	r12, #11
	beq.w	.LBB14_422
	b.w	.LBB14_448
.LBB14_365:
	ldrd	r2, r3, [r6, #64]
	subs.w	r2, lr, r2
	sbcs.w	r2, r12, r3
	blt.w	.LBB14_334
.LBB14_366:
	add.w	r1, r9, #270
	movs	r2, #17
	ldr	r0, [sp, #396]
	bl	__aeabi_memcpy
	add.w	r1, r9, #290
	movs	r2, #17
	ldr	r0, [sp, #284]
	bl	__aeabi_memcpy
	ldrb.w	r0, [r6, #360]
	movs	r2, #3
	ldrb.w	r1, [r6, #361]
	strb.w	r2, [sp, #859]
	cmp	r0, #0
	mov.w	r0, #0
	str	r0, [sp, #864]
	movw	r2, :lower16:CORE_PERIPHERALS
	it	eq
	moveq	r1, #64
	strb.w	r1, [sp, #861]
	movs	r3, #0
	strb.w	r0, [sp, #824]
	add	r0, sp, #576
	add	r1, sp, #824
	movt	r2, :upper16:CORE_PERIPHERALS
	bl	smoltcp::wire::ip::Repr::lower::h8146fabc9d801364
	ldrb.w	r0, [sp, #576]
	cbz	r0, .LBB14_368
	movs	r0, #0
	str	r0, [sp, #368]
	movs	r0, #0
	str	r0, [sp, #352]
	movs	r0, #0
	ldrb.w	r1, [sp, #577]
	str	r0, [sp, #360]
	movs	r0, #0
	mov.w	r12, #11
	mov.w	r9, #3
	mov.w	lr, #0
	movs	r4, #0
	mov.w	r10, #0
	mov.w	r11, #0
	str	r0, [sp, #356]
	movs	r0, #0
	str	r0, [sp, #344]
	movs	r5, #0
	ldr	r3, [sp, #424]
	ldr	r2, [sp, #436]
	cmp.w	r12, #11
	beq.w	.LBB14_422
	b	.LBB14_448
.LBB14_368:
	ldr	r1, [sp, #304]
	ldrb.w	lr, [sp, #580]
	ldr.w	r12, [sp, #584]
	ldrh	r0, [r1]
	strh.w	r0, [sp, #736]
	ldrb	r0, [r1, #2]
	strb.w	r0, [sp, #738]
	ldr	r0, [sp, #288]
	add	r1, sp, #792
	ldm	r0!, {r2, r3, r4, r5}
	stm	r1!, {r2, r3, r4, r5}
	ldm.w	r0, {r2, r3, r4, r5}
	stm	r1!, {r2, r3, r4, r5}
	str.w	r12, [sp, #772]
	ldr	r0, [sp, #620]
	str	r0, [sp, #752]
	ldr.w	r1, [r6, #252]
	cmp.w	r1, #-1
	ble.w	.LBB14_480
	ldrd	r0, r5, [r6, #276]
	adds	r4, r1, r0
	ldrb.w	r0, [r6, #379]
	ldr.w	r2, [r6, #244]
	ldrh.w	r12, [r6, #336]
	ldrh.w	r3, [r6, #316]
	subs	r2, r2, r1
	strh.w	r3, [sp, #496]
	and	r1, r0, #31
	movs	r3, #1
	lsr.w	r1, r2, r1
	str	r3, [sp, #204]
	movw	r3, #65535
	str.w	lr, [sp, #360]
	mov.w	lr, #0
	str.w	r9, [sp, #200]
	cmp	r1, r3
	str	r0, [sp, #196]
	mov.w	r0, #1
	strh.w	r12, [sp, #498]
	mov.w	r9, #0
	strh.w	lr, [sp, #506]
	mov.w	r12, #0
	str	r5, [sp, #440]
	mov.w	r11, #0
	str	r0, [sp, #444]
	mov.w	r0, #0
	str	r4, [sp, #192]
	mov.w	r10, #0
	str	r4, [sp, #448]
	it	hs
	movhs	r1, r3
	strh.w	r1, [sp, #500]
	movw	r1, :lower16:CORE_PERIPHERALS
	movt	r1, :upper16:CORE_PERIPHERALS
	ldrb.w	r3, [r6, #358]
	strd	r1, lr, [sp, #488]
	movs	r1, #11
	str	r1, [sp, #208]
	movs	r1, #3
	strh.w	lr, [sp, #502]
	strb.w	lr, [sp, #509]
	str.w	lr, [sp, #452]
	str.w	lr, [sp, #464]
	str.w	lr, [sp, #476]
	str	r1, [sp, #420]
	mov	r1, r5
	movs	r1, #0
	str	r1, [sp, #368]
	movs	r1, #0
	str	r1, [sp, #216]
	movs	r1, #0
	str	r1, [sp, #212]
	movs	r1, #0
	str	r5, [sp, #344]
	str	r5, [sp, #356]
	movs	r5, #0
	str	r1, [sp, #352]
	movs	r1, #0
.LCPI14_1:
	tbh	[pc, r3, lsl #1]
.LJTI14_1:
	.short	(.LBB14_390-(.LCPI14_1+4))/2
	.short	(.LBB14_421-(.LCPI14_1+4))/2
	.short	(.LBB14_375-(.LCPI14_1+4))/2
	.short	(.LBB14_375-(.LCPI14_1+4))/2
	.short	(.LBB14_371-(.LCPI14_1+4))/2
	.short	(.LBB14_371-(.LCPI14_1+4))/2
	.short	(.LBB14_394-(.LCPI14_1+4))/2
	.short	(.LBB14_371-(.LCPI14_1+4))/2
	.short	(.LBB14_371-(.LCPI14_1+4))/2
	.short	(.LBB14_371-(.LCPI14_1+4))/2
	.short	(.LBB14_394-(.LCPI14_1+4))/2
	.p2align	1
.LBB14_371:
	ldr.w	r0, [r6, #292]
	cmp.w	r0, #-1
	ble.w	.LBB14_480
	ldr.w	r1, [r6, #272]
	add	r0, r1
	ldr	r1, [sp, #344]
	subs	r0, r0, r1
	ldr.w	r1, [r6, #296]
	bic.w	r9, r0, r0, asr #31
	cmp	r9, r1
	it	hi
	movhi	r9, r1
	ldr	r0, [sp, #432]
	ldr	r4, [r0, #32]
	ldr	r0, [sp, #360]
	bl	smoltcp::wire::ip::Repr::buffer_len::h21a6824b18829e4b
	subs	r0, r4, r0
	ldr.w	r1, [r6, #272]
	subs	r0, #34
	ldr.w	r5, [r6, #280]
	cmp	r9, r0
	it	hi
	movhi	r9, r0
	subs	r2, r5, r1
	bmi.w	.LBB14_481
	ldr.w	r1, [r6, #260]
	cbz	r1, .LBB14_377
	ldr.w	r0, [r6, #264]
	add	r0, r2
	udiv	r3, r0, r1
	mls	r0, r3, r1, r0
	b	.LBB14_378
.LBB14_375:
	movs	r1, #2
	strb.w	r1, [sp, #506]
	movw	r1, #65535
	cmp	r2, r1
	it	hs
	movhs	r2, r1
	cmp	r3, #2
	strh.w	r2, [sp, #500]
	bne	.LBB14_391
	movs	r0, #0
	movs	r1, #0
	str	r0, [sp, #444]
	ldr	r0, [sp, #196]
	str	r1, [sp, #204]
	movs	r1, #1
	strb.w	r1, [sp, #507]
	mov.w	lr, #2
	strb.w	r0, [sp, #508]
	ldr	r0, [sp, #344]
	strb.w	r1, [sp, #509]
	mov.w	r9, #0
	b	.LBB14_393
.LBB14_377:
	movs	r0, #0
.LBB14_378:
	ldr.w	r4, [r6, #268]
	cmp	r4, r2
	bhs	.LBB14_380
	movw	r0, :lower16:CORE_PERIPHERALS
	mov.w	r9, #0
	movt	r0, :upper16:CORE_PERIPHERALS
	b	.LBB14_383
.LBB14_380:
	subs	r3, r4, r2
	cmp	r3, r9
	it	lo
	movlo	r9, r3
	subs	r3, r1, r0
	cmp	r9, r3
	it	hi
	movhi	r9, r3
	adds.w	r3, r9, r0
	bhs.w	.LBB14_493
	cmp	r3, r1
	bhi.w	.LBB14_494
	ldr.w	r1, [r6, #256]
	add	r0, r1
.LBB14_383:
	add.w	r1, r9, r2
	str	r0, [sp, #488]
	cmp	r1, r4
	str.w	r9, [sp, #492]
	str	r5, [sp, #356]
	bne	.LBB14_389
	ldr	r0, [sp, #200]
	mov.w	lr, #0
	ldrb.w	r0, [r0, #310]
	subs	r1, r0, #4
	movs	r0, #1
	cmp	r1, #5
	str	r0, [sp, #204]
	bhi	.LBB14_394
	movs	r0, #3
.LCPI14_2:
	tbb	[pc, r1]
.LJTI14_2:
	.byte	(.LBB14_387-(.LCPI14_2+4))/2
	.byte	(.LBB14_388-(.LCPI14_2+4))/2
	.byte	(.LBB14_394-(.LCPI14_2+4))/2
	.byte	(.LBB14_387-(.LCPI14_2+4))/2
	.byte	(.LBB14_388-(.LCPI14_2+4))/2
	.byte	(.LBB14_388-(.LCPI14_2+4))/2
	.p2align	1
.LBB14_387:
	movs	r0, #1
	cmp.w	r9, #0
	beq.w	.LBB14_445
.LBB14_388:
	strb.w	r0, [sp, #506]
	movs	r1, #1
	str	r1, [sp, #204]
	mov	lr, r0
	b	.LBB14_394
.LBB14_389:
	mov.w	lr, #0
	movs	r0, #1
	str	r0, [sp, #204]
	b	.LBB14_394
.LBB14_390:
	mov.w	lr, #4
	mov.w	r9, #0
	strb.w	lr, [sp, #506]
	b	.LBB14_392
.LBB14_391:
	ldrb.w	r1, [r6, #382]
	ldr	r0, [sp, #196]
	ldrb.w	r2, [r6, #380]
	strb.w	r1, [sp, #509]
	strb.w	r2, [sp, #507]
	mov.w	r9, #0
	strb.w	r0, [sp, #508]
	mov.w	lr, #2
.LBB14_392:
	movs	r0, #1
	str	r0, [sp, #204]
	ldr	r0, [sp, #344]
.LBB14_393:
	str	r0, [sp, #356]
.LBB14_394:
	ldrd	r0, r1, [r6, #48]
	orrs	r0, r1
	ldr.w	r10, [sp, #432]
	ittt	eq
	ldrdeq	r0, r1, [r6, #56]
	eoreq	r0, r0, #1
	orrseq.w	r0, r0, r1
	beq	.LBB14_402
.LBB14_395:
	cmp.w	r9, #0
	beq	.LBB14_401
	ldr.w	r0, [r6, #272]
	ldr	r1, [sp, #356]
	subs	r0, r1, r0
	ldr	r5, [sp, #360]
	cmp.w	r0, #-1
	ble.w	.LBB14_481
	cmp.w	lr, #2
	bne	.LBB14_399
.LBB14_398:
	mov	r0, r5
	ldr.w	r4, [r10, #32]
	bl	smoltcp::wire::ip::Repr::buffer_len::h21a6824b18829e4b
	subs	r0, r4, r0
	movs	r1, #1
	subs	r0, #34
	strh.w	r1, [sp, #502]
	strh.w	r0, [sp, #504]
.LBB14_399:
	mov.w	r11, #0
	add	r0, sp, #440
	bl	smoltcp::wire::tcp::Repr::buffer_len::h2eec5b61ad7be6e8
	cbz	r5, .LBB14_406
.LBB14_400:
	add	r1, sp, #772
	cmp	r5, #1
	b	.LBB14_407
.LBB14_401:
	mov.w	r9, #0
	ldr	r5, [sp, #360]
	cmp.w	lr, #2
	beq	.LBB14_398
	b	.LBB14_399
.LBB14_402:
	ldrd	r0, r1, [r10]
	ldrd	r2, r3, [r6, #64]
	subs	r0, r0, r2
	sbcs.w	r0, r1, r3
	blt	.LBB14_395
	cmp.w	r9, #0
	bne	.LBB14_395
	cmp.w	lr, #1
	bhi	.LBB14_395
	ldr	r0, [sp, #344]
	mov.w	r11, #1
	subs	r0, #1
	str	r0, [sp, #344]
	str	r0, [sp, #440]
	movw	r0, :lower16:.Lanon.0c1329e98a8e4daf707f1d3aba20b49b.109
	mov.w	r9, #1
	ldr	r5, [sp, #360]
	movt	r0, :upper16:.Lanon.0c1329e98a8e4daf707f1d3aba20b49b.109
	str	r0, [sp, #488]
	str.w	r11, [sp, #492]
	add	r0, sp, #440
	bl	smoltcp::wire::tcp::Repr::buffer_len::h2eec5b61ad7be6e8
	cmp	r5, #0
	bne	.LBB14_400
.LBB14_406:
	add	r1, sp, #752
.LBB14_407:
	str	r0, [r1]
	ldr	r1, [sp, #256]
	ldrh.w	r0, [sp, #736]
	strb.w	r5, [sp, #828]
	strh	r0, [r1]
	ldrb.w	r0, [sp, #738]
	strb	r0, [r1, #2]
	ldr	r0, [sp, #772]
	add	r1, sp, #792
	str	r0, [sp, #832]
	ldr	r0, [sp, #252]
	ldr.w	r12, [sp, #752]
	ldm	r1!, {r2, r3, r4, r5}
	stm	r0!, {r2, r3, r4, r5}
	ldm.w	r1, {r2, r3, r4, r5}
	stm	r0!, {r2, r3, r4, r5}
	movs	r2, #72
	ldr	r0, [sp, #248]
	add	r1, sp, #440
	str.w	r12, [sp, #868]
	bl	__aeabi_memcpy4
	movs	r0, #4
	str	r0, [sp, #824]
	add	r0, sp, #576
	add	r1, sp, #824
	bl	smoltcp::iface::interface::IpPacket::ip_repr::h34c58f58187ffea8
	ldrb.w	r0, [sp, #576]
	cbz	r0, .LBB14_410
	cmp	r0, #1
	bne	.LBB14_411
	movs	r0, #1
	str	r0, [sp, #420]
	ldr	r1, [sp, #288]
	ldrd	r12, r3, [sp, #124]
	ldrd	r2, r5, [sp, #132]
	b	.LBB14_412
.LBB14_410:
	ldrb.w	r0, [sp, #594]
	ldrb.w	r12, [sp, #599]
	str	r0, [sp, #420]
	ldrb.w	r0, [sp, #604]
	str	r0, [sp, #120]
	ldrb.w	r0, [sp, #605]
	str	r0, [sp, #112]
	ldrb.w	r0, [sp, #609]
	ldrb.w	r2, [sp, #606]
	ldrb.w	r5, [sp, #608]
	ldrb.w	r3, [sp, #607]
	str	r0, [sp, #116]
	ldrb.w	r0, [sp, #610]
	ldr	r1, [sp, #268]
	str	r0, [sp, #108]
	ldr	r0, [sp, #600]
	str	r0, [sp, #104]
	b	.LBB14_412
.LBB14_411:
	ldrb.w	r0, [sp, #609]
	ldrb.w	r12, [sp, #604]
	str	r0, [sp, #120]
	ldrb.w	r0, [sp, #610]
	str	r0, [sp, #112]
	ldrb.w	r0, [sp, #614]
	ldrb.w	r2, [sp, #611]
	ldrb.w	r3, [sp, #612]
	ldrb.w	r5, [sp, #613]
	str	r0, [sp, #116]
	ldrb.w	r0, [sp, #615]
	ldr	r1, [sp, #272]
	str	r0, [sp, #108]
	ldr.w	r0, [sp, #605]
	str	r0, [sp, #104]
	movs	r0, #2
	str	r0, [sp, #420]
.LBB14_412:
	ldr.w	r4, [r10, #80]
	mov.w	r0, #6208
	ldr	r0, [r4, r0]
	cmp	r0, #4
	bhs.w	.LBB14_456
	add.w	r0, r4, r0, lsl #4
	strd	r2, r5, [sp, #132]
	ldr	r0, [r0, #12]
	cmp.w	r0, #-1
	ldr	r0, [r1]
	str	r0, [sp, #352]
	strd	r12, r3, [sp, #124]
	ble	.LBB14_419
	add	r5, sp, #576
	movs	r2, #152
	mov	r0, r5
	add	r1, sp, #824
	bl	__aeabi_memcpy8
	mov	r0, r10
	mov	r1, r4
	mov	r2, r5
	bl	smoltcp::iface::interface::InterfaceInner::dispatch_ip::h40aab87b8d567aea
	uxtb	r1, r0
	cmp	r1, #11
	bne	.LBB14_420
	ldr	r0, [sp, #200]
	add	r5, sp, #108
	ldrd	r12, lr, [sp, #128]
	ldrd	r0, r1, [r0]
	orrs	r0, r1
	ldr	r2, [sp, #136]
	ldm	r5, {r1, r3, r4, r5}
	bne	.LBB14_417
	ldrd	r0, r1, [r6, #136]
	ldrd	r2, r3, [r10]
	ldr.w	r5, [r6, #144]
	str	r1, [r6, #60]
	adds	r1, r5, r2
	add	r5, sp, #108
	str	r0, [r6, #56]
	ldr.w	r0, [r6, #148]
	str	r1, [r6, #64]
	adcs	r0, r3
	ldm	r5, {r1, r3, r4, r5}
	ldr	r2, [sp, #136]
	str	r0, [r6, #68]
.LBB14_417:
	cmp.w	r11, #0
	mov.w	r0, #0
	str.w	r0, [r6, #184]
	str.w	r0, [r6, #188]
	beq	.LBB14_425
	movs	r0, #11
	str	r0, [sp, #208]
	str.w	r12, [sp, #368]
	mov	r0, lr
	mov	lr, r2
	mov	r12, r3
	strd	r4, r1, [sp, #212]
	mov	r11, r5
	ldr.w	r10, [sp, #104]
	ldr	r5, [sp, #124]
	movs	r1, #11
	b	.LBB14_421
.LBB14_419:
	movs	r0, #11
	movs	r1, #0
	str	r0, [sp, #208]
	mov	lr, r5
	mov	r0, r2
	ldr	r2, [sp, #108]
	mov	r5, r12
	ldr.w	r12, [sp, #112]
	ldr.w	r11, [sp, #120]
	str	r3, [sp, #368]
	ldr.w	r10, [sp, #104]
	str	r2, [sp, #216]
	ldr	r2, [sp, #116]
	str	r2, [sp, #212]
	b	.LBB14_421
.LBB14_420:
	ldr	r0, [sp, #128]
	ldr	r2, [sp, #108]
	ldr.w	lr, [sp, #136]
	str	r0, [sp, #368]
	ldr	r0, [sp, #132]
	str	r2, [sp, #216]
	ldr	r2, [sp, #116]
	str	r2, [sp, #212]
	ldr.w	r12, [sp, #112]
	str	r1, [sp, #208]
	ldr.w	r10, [sp, #104]
	ldrd	r11, r5, [sp, #120]
.LBB14_421:
	str.w	r10, [sp, #344]
	ldr	r3, [sp, #424]
	strd	r11, r12, [sp, #356]
	ldr	r2, [sp, #436]
	ldr.w	r12, [sp, #208]
	mov	r4, r0
	ldr.w	r9, [sp, #420]
	ldrd	r11, r10, [sp, #212]
	cmp.w	r12, #11
	bne.w	.LBB14_448
.LBB14_422:
	cmp	r1, #0
	beq.w	.LBB14_181
	cmp	r1, #11
	bne.w	.LBB14_454
.LBB14_424:
	movs	r2, #1
	b.w	.LBB14_181
.LBB14_425:
	ldrb.w	r0, [sp, #506]
	and	r1, r0, #6
	mov	r0, r9
	cmp	r1, #2
	it	eq
	addeq	r0, #1
	cmp.w	r0, #-1
	ble.w	.LBB14_480
	ldr	r2, [sp, #344]
	cmp	r1, #2
	mov.w	r4, #0
	ldr	r1, [sp, #192]
	add	r0, r2
	str.w	r0, [r6, #280]
	ldr	r2, [sp, #204]
	str.w	r2, [r6, #284]
	str.w	r1, [r6, #288]
	it	eq
	moveq.w	r4, #-1
	ldrh.w	r1, [sp, #500]
	cmp	r9, r4
	strh.w	r1, [r6, #356]
	bne	.LBB14_428
	ldr	r5, [sp, #200]
	mov	r1, r10
	mov	r0, r5
	bl	smoltcp::socket::tcp::TcpSocket::seq_to_transmit::hb33c0196cfeb4773
	b	.LBB14_435
.LBB14_428:
	ldrd	r2, r1, [r6, #104]
	cmp	r2, #0
	mov	r3, r2
	sub.w	r1, r0, r1
	it	ne
	movne	r3, #1
	cmp	r1, #0
	mov.w	r1, #0
	it	gt
	movgt	r1, #1
	cmp	r2, #0
	ldrd	r2, r12, [r10]
	beq	.LBB14_430
	ands	r1, r3
	beq	.LBB14_432
.LBB14_430:
	ldrd	r1, r3, [r6, #72]
	eor	r1, r1, #1
	orrs	r1, r3
	mov.w	r1, #1
	strd	r1, r0, [r6, #104]
	beq	.LBB14_432
	movs	r1, #1
	add.w	r3, r6, #76
	str	r1, [r6, #72]
	movs	r1, #0
	stm.w	r3, {r1, r2, r12}
	str	r0, [r6, #88]
.LBB14_432:
	ldr	r5, [sp, #200]
	mov	r1, r10
	mov	r0, r5
	bl	smoltcp::socket::tcp::TcpSocket::seq_to_transmit::hb33c0196cfeb4773
	cbnz	r0, .LBB14_435
	cmp	r9, r4
	beq	.LBB14_435
	ldrd	r0, r1, [r6, #96]
	lsls	r2, r1, #2
	cmp	r2, #5
	mov.w	r2, #5
	it	hi
	lslhi	r2, r1, #2
	add	r0, r2
	movw	r1, #10000
	cmp	r0, #10
	it	ls
	movls	r0, #10
	cmp	r0, r1
	it	hs
	movhs	r0, r1
	mov.w	r1, #1000
	muls	r0, r1, r0
	str	r0, [sp]
	movs	r0, #0
	ldrd	r2, r3, [r10]
	str	r0, [sp, #4]
	mov	r0, r5
	bl	smoltcp::socket::tcp::Timer::set_for_retransmit::h7f625af8cb92cdff
.LBB14_435:
	ldrb.w	r0, [r5, #310]
	cmp	r0, #0
	bne.w	.LBB14_359
	movs	r0, #0
	strh.w	r0, [r6, #316]
	strb.w	r0, [r6, #318]
	strh.w	r0, [r6, #336]
	strb.w	r0, [r6, #338]
	b	.LBB14_359
.LBB14_437:
	ldrb.w	r0, [sp, #599]
	ldrb.w	r9, [sp, #594]
	str	r0, [sp, #328]
	ldrb.w	r0, [sp, #604]
	str	r0, [sp, #316]
	ldrb.w	r0, [sp, #605]
	str	r0, [sp, #308]
	ldrb.w	r0, [sp, #606]
	str	r0, [sp, #340]
	ldrb.w	r0, [sp, #607]
	str	r0, [sp, #332]
	ldrb.w	r0, [sp, #608]
	str	r0, [sp, #320]
	ldrb.w	r0, [sp, #609]
	str	r0, [sp, #336]
	ldrb.w	r0, [sp, #610]
	str	r0, [sp, #324]
	ldr	r0, [sp, #600]
	str	r0, [sp, #312]
	ldr	r1, [sp, #268]
	ldr	r3, [sp, #424]
	ldr	r5, [sp, #360]
	b	.LBB14_439
.LBB14_438:
	ldrb.w	r0, [sp, #604]
	mov.w	r9, #2
	str	r0, [sp, #328]
	ldrb.w	r0, [sp, #609]
	str	r0, [sp, #316]
	ldrb.w	r0, [sp, #610]
	str	r0, [sp, #308]
	ldrb.w	r0, [sp, #611]
	str	r0, [sp, #340]
	ldrb.w	r0, [sp, #612]
	str	r0, [sp, #332]
	ldrb.w	r0, [sp, #613]
	str	r0, [sp, #320]
	ldrb.w	r0, [sp, #614]
	str	r0, [sp, #336]
	ldrb.w	r0, [sp, #615]
	ldr	r1, [sp, #272]
	str	r0, [sp, #324]
	ldr.w	r0, [sp, #605]
	str	r0, [sp, #312]
.LBB14_439:
	ldr	r0, [sp, #432]
	ldr.w	r11, [r0, #80]
	mov.w	r0, #6208
	ldr.w	r0, [r11, r0]
	cmp	r0, #4
	bhs.w	.LBB14_456
	add.w	r0, r11, r0, lsl #4
	ldr	r0, [r0, #12]
	cmp.w	r0, #-1
	ldr	r0, [r1]
	str	r0, [sp, #352]
	ble	.LBB14_443
	add	r4, sp, #576
	movs	r2, #152
	mov	r0, r4
	add	r1, sp, #824
	bl	__aeabi_memcpy8
	ldr	r0, [sp, #432]
	mov	r1, r11
	mov	r2, r4
	bl	smoltcp::iface::interface::InterfaceInner::dispatch_ip::h40aab87b8d567aea
	uxtb.w	r12, r0
	cmp.w	r12, #11
	bne	.LBB14_444
	str.w	r9, [sp, #420]
	ldr	r0, [sp, #340]
	ldrd	r2, r11, [sp, #332]
	ldrd	r3, r1, [sp, #316]
	ldrd	r12, lr, [sp, #308]
	ldrd	r9, r5, [sp, #324]
	b.w	.LBB14_312
.LBB14_443:
	ldr	r0, [sp, #340]
	str	r0, [sp, #188]
	ldr	r0, [sp, #332]
	str	r0, [sp, #192]
	ldr	r0, [sp, #320]
	str	r0, [sp, #196]
	ldr	r0, [sp, #336]
	str	r0, [sp, #200]
	ldr	r0, [sp, #324]
	str	r0, [sp, #344]
	ldr	r0, [sp, #328]
	str	r0, [sp, #216]
	ldr	r0, [sp, #312]
	str	r0, [sp, #204]
	ldr	r0, [sp, #316]
	movs	r4, #0
	mov.w	r12, #11
	str	r0, [sp, #208]
	ldr	r0, [sp, #308]
	str	r0, [sp, #212]
	movs	r1, #0
	b.w	.LBB14_313
.LBB14_444:
	ldr	r0, [sp, #340]
	str	r0, [sp, #188]
	ldr	r0, [sp, #332]
	str	r0, [sp, #192]
	ldr	r0, [sp, #320]
	str	r0, [sp, #196]
	ldr	r0, [sp, #336]
	str	r0, [sp, #200]
	ldr	r0, [sp, #324]
	str	r0, [sp, #344]
	ldr	r0, [sp, #328]
	str	r0, [sp, #216]
	ldr	r0, [sp, #312]
	str	r0, [sp, #204]
	ldr	r0, [sp, #316]
	movs	r4, #0
	str	r0, [sp, #208]
	ldr	r0, [sp, #308]
	str	r0, [sp, #212]
	mov	r1, r12
	ldr	r3, [sp, #424]
	b.w	.LBB14_313
.LBB14_445:
	str	r0, [sp, #204]
	mov.w	lr, #0
	b	.LBB14_394
.LBB14_446:
	ldr	r1, [sp, #344]
	str	r2, [sp, #352]
	cmp	r1, lr
	blo.w	.LBB14_495
	ldrb.w	r0, [r9, #8]
	sub.w	r4, r1, lr
	str	r0, [sp, #212]
	ldr.w	r0, [r9, #12]
	str	r0, [sp, #344]
	ldr.w	r0, [r9, #16]
	str	r0, [sp, #216]
	add	r0, sp, #576
	bl	smoltcp::wire::ipv4::Packet<&T>::payload::h2b0d1ff23f7a1934
	movs	r5, #1
	ldr.w	r9, [sp, #20]
	ldr.w	r11, [sp, #420]
	strd	r0, r1, [sp, #204]
	b.w	.LBB14_295
.LBB14_448:
	mov	r0, r9
	movw	r9, #37160
	cmp.w	r12, #0
	movt	r9, #16386
	beq.w	.LBB14_1
	strd	r11, r10, [sp, #212]
	ldr.w	r8, [sp, #368]
	mov	r11, lr
	cmp.w	r12, #2
	ldr.w	r10, [sp, #432]
	movw	lr, #6224
	bne	.LBB14_459
	cmp	r0, #3
	beq.w	.LBB14_492
	movw	r2, #50880
	mov	r3, r4
	mov	r4, r0
	movt	r2, #45
	ldrd	r0, r1, [r10]
	adds	r0, r0, r2
	ldr	r2, [sp, #436]
	adc	r1, r1, #0
	strb	r4, [r6, #1]
	strd	r0, r1, [r6, #24]
	ldr	r0, [sp, #352]
	str.w	r0, [r6, #2]
	ldr	r0, [sp, #344]
	str.w	r0, [r6, #7]
	ldr	r0, [sp, #356]
	strb	r0, [r6, #11]
	ldr	r0, [sp, #360]
	strb	r0, [r6, #12]
	ldr	r0, [sp, #212]
	strb	r0, [r6, #16]
	ldr	r0, [sp, #216]
	strb	r5, [r6, #6]
	strb	r3, [r6, #13]
	strb.w	r8, [r6, #14]
	strb.w	r11, [r6, #15]
	strb	r0, [r6, #17]
	movs	r0, #1
	strb	r0, [r6]
	b.w	.LBB14_2
.LBB14_452:
	ldr	r0, [sp, #408]
	and	r1, r0, #1
	movs	r0, #0
	add.w	sp, sp, #980
	pop.w	{r8, r9, r10, r11}
	pop	{r4, r5, r6, r7, pc}
.LBB14_453:
	movw	r2, :lower16:.Lanon.0c1329e98a8e4daf707f1d3aba20b49b.248
	movt	r2, :upper16:.Lanon.0c1329e98a8e4daf707f1d3aba20b49b.248
	movs	r1, #4
	mov	r0, r6
	bl	core::panicking::panic_bounds_check::h693951cbac28abbe
	.inst.n	0xdefe
.LBB14_454:
	movs	r0, #1
	add.w	sp, sp, #980
	pop.w	{r8, r9, r10, r11}
	pop	{r4, r5, r6, r7, pc}
.LBB14_455:
	movs	r1, #8
	movs	r0, #1
	add.w	sp, sp, #980
	pop.w	{r8, r9, r10, r11}
	pop	{r4, r5, r6, r7, pc}
.LBB14_456:
	movw	r2, :lower16:.Lanon.0c1329e98a8e4daf707f1d3aba20b49b.227
	movt	r2, :upper16:.Lanon.0c1329e98a8e4daf707f1d3aba20b49b.227
	movs	r1, #4
	bl	core::panicking::panic_bounds_check::h693951cbac28abbe
	.inst.n	0xdefe
.LBB14_457:
	movw	r2, :lower16:.Lanon.0c1329e98a8e4daf707f1d3aba20b49b.253
	movt	r2, :upper16:.Lanon.0c1329e98a8e4daf707f1d3aba20b49b.253
	movs	r1, #4
	bl	core::panicking::panic_bounds_check::h693951cbac28abbe
	.inst.n	0xdefe
.LBB14_458:
	movw	r2, :lower16:.Lanon.0c1329e98a8e4daf707f1d3aba20b49b.250
	movt	r2, :upper16:.Lanon.0c1329e98a8e4daf707f1d3aba20b49b.250
	movs	r1, #4
	mov	r0, r6
	bl	core::panicking::panic_bounds_check::h693951cbac28abbe
	.inst.n	0xdefe
.LBB14_459:
	movs	r0, #1
	mov	r1, r12
	add.w	sp, sp, #980
	pop.w	{r8, r9, r10, r11}
	pop	{r4, r5, r6, r7, pc}
.LBB14_460:
	movw	r0, :lower16:str.1
	movw	r2, :lower16:.Lanon.dc80c87ea47a70125c3d5d93959ab909.126
	movt	r0, :upper16:str.1
	movt	r2, :upper16:.Lanon.dc80c87ea47a70125c3d5d93959ab909.126
	movs	r1, #57
	bl	core::panicking::panic::ha0d68f1d939a874b
	.inst.n	0xdefe
.LBB14_461:
	movw	r2, :lower16:.Lanon.0c1329e98a8e4daf707f1d3aba20b49b.295
	mov	r1, r9
	movt	r2, :upper16:.Lanon.0c1329e98a8e4daf707f1d3aba20b49b.295
	bl	core::panicking::panic_bounds_check::h693951cbac28abbe
	.inst.n	0xdefe
.LBB14_462:
	movw	r2, :lower16:.Lanon.0c1329e98a8e4daf707f1d3aba20b49b.295
	movt	r2, :upper16:.Lanon.0c1329e98a8e4daf707f1d3aba20b49b.295
	bl	core::panicking::panic_bounds_check::h693951cbac28abbe
	.inst.n	0xdefe
.LBB14_463:
	movw	r2, :lower16:.Lanon.dc80c87ea47a70125c3d5d93959ab909.369
	movs	r0, #0
	movt	r2, :upper16:.Lanon.dc80c87ea47a70125c3d5d93959ab909.369
	movs	r1, #0
	bl	core::panicking::panic_bounds_check::h693951cbac28abbe
	.inst.n	0xdefe
.LBB14_464:
	movw	r0, :lower16:.Lanon.0c1329e98a8e4daf707f1d3aba20b49b.251
	movw	r2, :lower16:.Lanon.0c1329e98a8e4daf707f1d3aba20b49b.252
	movt	r0, :upper16:.Lanon.0c1329e98a8e4daf707f1d3aba20b49b.251
	movt	r2, :upper16:.Lanon.0c1329e98a8e4daf707f1d3aba20b49b.252
	movs	r1, #55
	bl	core::panicking::panic::ha0d68f1d939a874b
	.inst.n	0xdefe
.LBB14_465:
	movw	r0, :lower16:.Lanon.a766a8867b32155983aeb12c9f88ad10.275
	movw	r2, :lower16:.Lanon.dc80c87ea47a70125c3d5d93959ab909.48
	movt	r0, :upper16:.Lanon.a766a8867b32155983aeb12c9f88ad10.275
	movt	r2, :upper16:.Lanon.dc80c87ea47a70125c3d5d93959ab909.48
	movs	r1, #43
	bl	core::panicking::panic::ha0d68f1d939a874b
	.inst.n	0xdefe
.LBB14_466:
	movw	r0, :lower16:.Lanon.a766a8867b32155983aeb12c9f88ad10.275
	movw	r2, :lower16:.Lanon.0c1329e98a8e4daf707f1d3aba20b49b.110
	movt	r0, :upper16:.Lanon.a766a8867b32155983aeb12c9f88ad10.275
	movt	r2, :upper16:.Lanon.0c1329e98a8e4daf707f1d3aba20b49b.110
	movs	r1, #43
	bl	core::panicking::panic::ha0d68f1d939a874b
	.inst.n	0xdefe
.LBB14_467:
	movw	r2, :lower16:.Lanon.0c1329e98a8e4daf707f1d3aba20b49b.235
	movt	r2, :upper16:.Lanon.0c1329e98a8e4daf707f1d3aba20b49b.235
	movs	r1, #4
	bl	core::panicking::panic_bounds_check::h693951cbac28abbe
	.inst.n	0xdefe
.LBB14_468:
	movw	r2, :lower16:.Lanon.dc80c87ea47a70125c3d5d93959ab909.129
	mov	r0, r3
	movt	r2, :upper16:.Lanon.dc80c87ea47a70125c3d5d93959ab909.129
	mov	r1, r11
	bl	core::slice::index::slice_end_index_len_fail::h5a91c503035fd6a0
	.inst.n	0xdefe
.LBB14_469:
	movw	r0, :lower16:.Lanon.a766a8867b32155983aeb12c9f88ad10.275
	movw	r2, :lower16:.Lanon.0c1329e98a8e4daf707f1d3aba20b49b.291
	movt	r0, :upper16:.Lanon.a766a8867b32155983aeb12c9f88ad10.275
	movt	r2, :upper16:.Lanon.0c1329e98a8e4daf707f1d3aba20b49b.291
	movs	r1, #43
	bl	core::panicking::panic::ha0d68f1d939a874b
	.inst.n	0xdefe
.LBB14_470:
	movw	r2, :lower16:.Lanon.dc80c87ea47a70125c3d5d93959ab909.129
	mov	r0, r5
	movt	r2, :upper16:.Lanon.dc80c87ea47a70125c3d5d93959ab909.129
	mov	r1, r3
	bl	core::slice::index::slice_index_order_fail::h8a53f055fb6ee074
	.inst.n	0xdefe
.LBB14_471:
	movw	r2, :lower16:.Lanon.dc80c87ea47a70125c3d5d93959ab909.129
	mov	r0, r4
	movt	r2, :upper16:.Lanon.dc80c87ea47a70125c3d5d93959ab909.129
	mov	r1, r3
	bl	core::slice::index::slice_index_order_fail::h8a53f055fb6ee074
	.inst.n	0xdefe
.LBB14_472:
	movw	r2, :lower16:.Lanon.0c1329e98a8e4daf707f1d3aba20b49b.292
	movt	r2, :upper16:.Lanon.0c1329e98a8e4daf707f1d3aba20b49b.292
	mov	r0, r3
	bl	core::slice::index::slice_end_index_len_fail::h5a91c503035fd6a0
	.inst.n	0xdefe
.LBB14_473:
	movw	r2, :lower16:.Lanon.0c1329e98a8e4daf707f1d3aba20b49b.292
	mov	r0, r5
	movt	r2, :upper16:.Lanon.0c1329e98a8e4daf707f1d3aba20b49b.292
	bl	core::slice::index::slice_end_index_len_fail::h5a91c503035fd6a0
	.inst.n	0xdefe
.LBB14_474:
	movw	r2, :lower16:.Lanon.0c1329e98a8e4daf707f1d3aba20b49b.299
	movt	r2, :upper16:.Lanon.0c1329e98a8e4daf707f1d3aba20b49b.299
	bl	core::slice::index::slice_end_index_len_fail::h5a91c503035fd6a0
	.inst.n	0xdefe
.LBB14_475:
	movw	r2, :lower16:.Lanon.0c1329e98a8e4daf707f1d3aba20b49b.300
	movt	r2, :upper16:.Lanon.0c1329e98a8e4daf707f1d3aba20b49b.300
	mov	r0, r3
	bl	core::slice::index::slice_end_index_len_fail::h5a91c503035fd6a0
	.inst.n	0xdefe
.LBB14_476:
	movw	r2, :lower16:.Lanon.0c1329e98a8e4daf707f1d3aba20b49b.301
	movt	r2, :upper16:.Lanon.0c1329e98a8e4daf707f1d3aba20b49b.301
	mov	r0, r3
	bl	core::slice::index::slice_end_index_len_fail::h5a91c503035fd6a0
	.inst.n	0xdefe
.LBB14_477:
	movw	r2, :lower16:.Lanon.0c1329e98a8e4daf707f1d3aba20b49b.302
	movt	r2, :upper16:.Lanon.0c1329e98a8e4daf707f1d3aba20b49b.302
	mov	r0, r3
	bl	core::slice::index::slice_end_index_len_fail::h5a91c503035fd6a0
	.inst.n	0xdefe
.LBB14_478:
	movw	r2, :lower16:.Lanon.dc80c87ea47a70125c3d5d93959ab909.129
	movt	r2, :upper16:.Lanon.dc80c87ea47a70125c3d5d93959ab909.129
	mov	r1, r3
	bl	core::slice::index::slice_index_order_fail::h8a53f055fb6ee074
	.inst.n	0xdefe
.LBB14_479:
	movw	r2, :lower16:.Lanon.dc80c87ea47a70125c3d5d93959ab909.129
	movt	r2, :upper16:.Lanon.dc80c87ea47a70125c3d5d93959ab909.129
	mov	r0, r3
	bl	core::slice::index::slice_end_index_len_fail::h5a91c503035fd6a0
	.inst.n	0xdefe
.LBB14_480:
	movw	r0, :lower16:.Lanon.dc80c87ea47a70125c3d5d93959ab909.593
	movw	r2, :lower16:.Lanon.dc80c87ea47a70125c3d5d93959ab909.595
	movt	r0, :upper16:.Lanon.dc80c87ea47a70125c3d5d93959ab909.593
	movt	r2, :upper16:.Lanon.dc80c87ea47a70125c3d5d93959ab909.595
	movs	r1, #56
	bl	core::panicking::panic::ha0d68f1d939a874b
	.inst.n	0xdefe
.LBB14_481:
	movw	r0, :lower16:.Lanon.dc80c87ea47a70125c3d5d93959ab909.598
	movw	r2, :lower16:.Lanon.dc80c87ea47a70125c3d5d93959ab909.599
	movt	r0, :upper16:.Lanon.dc80c87ea47a70125c3d5d93959ab909.598
	movt	r2, :upper16:.Lanon.dc80c87ea47a70125c3d5d93959ab909.599
	movs	r1, #51
	bl	core::panicking::panic::ha0d68f1d939a874b
	.inst.n	0xdefe
.LBB14_482:
	movw	r0, :lower16:.Lanon.a766a8867b32155983aeb12c9f88ad10.275
	movw	r2, :lower16:.Lanon.0c1329e98a8e4daf707f1d3aba20b49b.111
	movt	r0, :upper16:.Lanon.a766a8867b32155983aeb12c9f88ad10.275
	movt	r2, :upper16:.Lanon.0c1329e98a8e4daf707f1d3aba20b49b.111
	movs	r1, #43
	bl	core::panicking::panic::ha0d68f1d939a874b
	.inst.n	0xdefe
.LBB14_483:
	movw	r0, :lower16:.Lanon.a766a8867b32155983aeb12c9f88ad10.5
	movw	r2, :lower16:.Lanon.0c1329e98a8e4daf707f1d3aba20b49b.112
	movt	r0, :upper16:.Lanon.a766a8867b32155983aeb12c9f88ad10.5
	movt	r2, :upper16:.Lanon.0c1329e98a8e4daf707f1d3aba20b49b.112
	movs	r1, #40
	bl	core::panicking::panic::ha0d68f1d939a874b
	.inst.n	0xdefe
.LBB14_484:
	movw	r2, :lower16:.Lanon.dc80c87ea47a70125c3d5d93959ab909.420
	mov	r0, r6
	movt	r2, :upper16:.Lanon.dc80c87ea47a70125c3d5d93959ab909.420
	mov	r1, r3
	bl	core::slice::index::slice_index_order_fail::h8a53f055fb6ee074
	.inst.n	0xdefe
.LBB14_485:
	movw	r2, :lower16:.Lanon.dc80c87ea47a70125c3d5d93959ab909.669
	movs	r0, #4
	movt	r2, :upper16:.Lanon.dc80c87ea47a70125c3d5d93959ab909.669
	b	.LBB14_491
.LBB14_486:
	movw	r2, :lower16:.Lanon.dc80c87ea47a70125c3d5d93959ab909.672
	movt	r2, :upper16:.Lanon.dc80c87ea47a70125c3d5d93959ab909.672
	b	.LBB14_490
.LBB14_487:
	movw	r2, :lower16:.Lanon.dc80c87ea47a70125c3d5d93959ab909.670
	movs	r0, #6
	movt	r2, :upper16:.Lanon.dc80c87ea47a70125c3d5d93959ab909.670
	b	.LBB14_491
.LBB14_488:
	movw	r2, :lower16:.Lanon.dc80c87ea47a70125c3d5d93959ab909.673
	movs	r0, #8
	movt	r2, :upper16:.Lanon.dc80c87ea47a70125c3d5d93959ab909.673
	bl	core::slice::index::slice_index_order_fail::h8a53f055fb6ee074
	.inst.n	0xdefe
.LBB14_489:
	movw	r2, :lower16:.Lanon.dc80c87ea47a70125c3d5d93959ab909.673
	movt	r2, :upper16:.Lanon.dc80c87ea47a70125c3d5d93959ab909.673
.LBB14_490:
	mov	r0, r1
.LBB14_491:
	ldr	r1, [sp, #360]
	bl	core::slice::index::slice_end_index_len_fail::h5a91c503035fd6a0
	.inst.n	0xdefe
.LBB14_492:
	movw	r0, :lower16:.Lanon.0c1329e98a8e4daf707f1d3aba20b49b.97
	movw	r2, :lower16:.Lanon.0c1329e98a8e4daf707f1d3aba20b49b.98
	movt	r0, :upper16:.Lanon.0c1329e98a8e4daf707f1d3aba20b49b.97
	movt	r2, :upper16:.Lanon.0c1329e98a8e4daf707f1d3aba20b49b.98
	movs	r1, #22
	bl	core::option::expect_failed::h22026eb39ea9589c
	.inst.n	0xdefe
.LBB14_493:
	movw	r2, :lower16:.Lanon.0c1329e98a8e4daf707f1d3aba20b49b.297
	movt	r2, :upper16:.Lanon.0c1329e98a8e4daf707f1d3aba20b49b.297
	mov	r1, r3
	bl	core::slice::index::slice_index_order_fail::h8a53f055fb6ee074
	.inst.n	0xdefe
.LBB14_494:
	movw	r2, :lower16:.Lanon.0c1329e98a8e4daf707f1d3aba20b49b.297
	movt	r2, :upper16:.Lanon.0c1329e98a8e4daf707f1d3aba20b49b.297
	mov	r0, r3
	bl	core::slice::index::slice_end_index_len_fail::h5a91c503035fd6a0
	.inst.n	0xdefe
.LBB14_495:
	movw	r2, :lower16:.Lanon.dc80c87ea47a70125c3d5d93959ab909.420
	mov	r0, lr
	movt	r2, :upper16:.Lanon.dc80c87ea47a70125c3d5d93959ab909.420
	bl	core::slice::index::slice_index_order_fail::h8a53f055fb6ee074
	.inst.n	0xdefe
.Lfunc_end14:
	.size	smoltcp::iface::interface::Interface<DeviceT>::poll::he6084df7d1efd02c, .Lfunc_end14-smoltcp::iface::interface::Interface<DeviceT>::poll::he6084df7d1efd02c
	.cfi_endproc
	.cantunwind
	.fnend

	.section	.text._ZN14thermostat_eem8hardware3adc3Adc9setup_adc17h59001fe7d7675597E,"ax",%progbits
	.p2align	1
	.type	thermostat_eem::hardware::adc::Adc::setup_adc::h59001fe7d7675597,%function
	.code	16
	.thumb_func
thermostat_eem::hardware::adc::Adc::setup_adc::h59001fe7d7675597:
.Lfunc_begin15:
	.fnstart
	.cfi_startproc
	.save	{r4, r5, r6, r7, lr}
	push	{r4, r5, r6, r7, lr}
	.cfi_def_cfa_offset 20
	.cfi_offset lr, -4
	.cfi_offset r7, -8
	.cfi_offset r6, -12
	.cfi_offset r5, -16
	.cfi_offset r4, -20
	.setfp	r7, sp, #12
	add	r7, sp, #12
	.cfi_def_cfa r7, 8
	.save	{r8}
	str	r8, [sp, #-4]!
	.cfi_offset r8, -24
	.pad	#24
	sub	sp, #24
	mov.w	r8, #-805306368
	adds	r4, r0, #4
	mov.w	r0, #-1
	str	r0, [sp, #8]
	orn	r0, r8, #-805306368
	str	r0, [sp, #12]
	add	r5, sp, #8
	movs	r0, #8
	mov	r6, r1
	movs	r2, #8
	str	r0, [sp]
	mov	r0, r4
	mov	r1, r5
	mov	r3, r5
	bl	stm32h7xx_hal::spi::Spi<stm32h7::stm32h743v::SPI4,stm32h7xx_hal::spi::Enabled>::transfer_internal::h3a158811a6b4093e
	cmp	r0, #6
	bne.w	.LBB15_12
	mov.w	r0, #500
	muls	r0, r6, r0
	bl	__delay
	mov.w	r0, #18176
	str	r0, [sp, #12]
	movs	r0, #0
	str	r0, [sp, #8]
	adds	r1, r5, #5
	movs	r0, #3
	movs	r2, #3
	str	r0, [sp]
	mov	r0, r4
	mov	r3, r1
	bl	stm32h7xx_hal::spi::Spi<stm32h7::stm32h743v::SPI4,stm32h7xx_hal::spi::Enabled>::transfer_internal::h3a158811a6b4093e
	cmp	r0, #6
	bne.w	.LBB15_13
	movs	r1, #0
	ldr	r0, [sp, #12]
	movt	r1, #61695
	ands	r0, r1
	teq.w	r0, r8
	bne.w	.LBB15_14
	movw	r0, #256
	adds	r5, #1
	movt	r0, #2176
	str	r0, [sp, #8]
	movs	r2, #3
	movs	r3, #0
	mov	r0, r4
	mov	r1, r5
	movs	r6, #0
	str	r6, [sp]
	bl	stm32h7xx_hal::spi::Spi<stm32h7::stm32h743v::SPI4,stm32h7xx_hal::spi::Enabled>::transfer_internal::h3a158811a6b4093e
	cmp	r0, #6
	bne	.LBB15_10
	movw	r0, #512
	movs	r2, #3
	movt	r0, #16384
	str	r0, [sp, #8]
	movs	r3, #0
	mov	r0, r4
	mov	r1, r5
	str	r6, [sp]
	bl	stm32h7xx_hal::spi::Spi<stm32h7::stm32h743v::SPI4,stm32h7xx_hal::spi::Enabled>::transfer_internal::h3a158811a6b4093e
	cmp	r0, #6
	bne	.LBB15_10
	movw	r0, #4096
	movs	r2, #3
	movt	r0, #384
	str	r0, [sp, #8]
	movs	r3, #0
	mov	r0, r4
	mov	r1, r5
	movs	r6, #0
	str	r6, [sp]
	bl	stm32h7xx_hal::spi::Spi<stm32h7::stm32h743v::SPI4,stm32h7xx_hal::spi::Enabled>::transfer_internal::h3a158811a6b4093e
	cmp	r0, #6
	bne	.LBB15_10
	movw	r0, #4352
	movs	r2, #3
	movt	r0, #17280
	str	r0, [sp, #8]
	movs	r3, #0
	mov	r0, r4
	mov	r1, r5
	str	r6, [sp]
	bl	stm32h7xx_hal::spi::Spi<stm32h7::stm32h743v::SPI4,stm32h7xx_hal::spi::Enabled>::transfer_internal::h3a158811a6b4093e
	cmp	r0, #6
	bne	.LBB15_10
	mov.w	r0, #991232
	str	r0, [sp, #8]
	movs	r2, #3
	movs	r3, #0
	mov	r0, r4
	mov	r1, r5
	movs	r6, #0
	str	r6, [sp]
	bl	stm32h7xx_hal::spi::Spi<stm32h7::stm32h743v::SPI4,stm32h7xx_hal::spi::Enabled>::transfer_internal::h3a158811a6b4093e
	cmp	r0, #6
	bne	.LBB15_10
	movw	r0, #10240
	movs	r2, #3
	movt	r0, #5632
	str	r0, [sp, #8]
	movs	r3, #0
	mov	r0, r4
	mov	r1, r5
	str	r6, [sp]
	bl	stm32h7xx_hal::spi::Spi<stm32h7::stm32h743v::SPI4,stm32h7xx_hal::spi::Enabled>::transfer_internal::h3a158811a6b4093e
	cmp	r0, #6
	bne	.LBB15_10
	movw	r0, #1536
	movs	r2, #3
	movt	r0, #8
	str	r0, [sp, #8]
	movs	r0, #0
	movs	r3, #0
	str	r0, [sp]
	mov	r0, r4
	mov	r1, r5
	bl	stm32h7xx_hal::spi::Spi<stm32h7::stm32h743v::SPI4,stm32h7xx_hal::spi::Enabled>::transfer_internal::h3a158811a6b4093e
	cmp	r0, #6
	ittt	eq
	addeq	sp, #24
	ldreq	r8, [sp], #4
	popeq	{r4, r5, r6, r7, pc}
.LBB15_10:
	movw	r6, :lower16:.Lanon.0c1329e98a8e4daf707f1d3aba20b49b.71
	str	r0, [sp, #16]
	str	r1, [sp, #20]
	movt	r6, :upper16:.Lanon.0c1329e98a8e4daf707f1d3aba20b49b.71
.LBB15_11:
	movw	r0, :lower16:.Lanon.0c1329e98a8e4daf707f1d3aba20b49b.363
	movw	r3, :lower16:.Lanon.0c1329e98a8e4daf707f1d3aba20b49b.364
	movt	r0, :upper16:.Lanon.0c1329e98a8e4daf707f1d3aba20b49b.363
	movt	r3, :upper16:.Lanon.0c1329e98a8e4daf707f1d3aba20b49b.364
	add	r2, sp, #16
	movs	r1, #43
	str	r6, [sp]
	bl	core::result::unwrap_failed::he67be68ddf63c991
	.inst.n	0xdefe
.LBB15_12:
	movw	r6, :lower16:.Lanon.0c1329e98a8e4daf707f1d3aba20b49b.68
	movt	r6, :upper16:.Lanon.0c1329e98a8e4daf707f1d3aba20b49b.68
	strd	r0, r1, [sp, #16]
	b	.LBB15_11
.LBB15_13:
	movw	r6, :lower16:.Lanon.0c1329e98a8e4daf707f1d3aba20b49b.70
	strd	r0, r1, [sp, #16]
	movt	r6, :upper16:.Lanon.0c1329e98a8e4daf707f1d3aba20b49b.70
	b	.LBB15_11
.LBB15_14:
	movw	r0, :lower16:.Lanon.f2125f0e4e7c810e47e19edfd9da912c.6
	movw	r2, :lower16:.Lanon.0c1329e98a8e4daf707f1d3aba20b49b.103
	movt	r0, :upper16:.Lanon.f2125f0e4e7c810e47e19edfd9da912c.6
	movt	r2, :upper16:.Lanon.0c1329e98a8e4daf707f1d3aba20b49b.103
	movs	r1, #14
	bl	core::panicking::panic::ha0d68f1d939a874b
	.inst.n	0xdefe
.Lfunc_end15:
	.size	thermostat_eem::hardware::adc::Adc::setup_adc::h59001fe7d7675597, .Lfunc_end15-thermostat_eem::hardware::adc::Adc::setup_adc::h59001fe7d7675597
	.cfi_endproc
	.cantunwind
	.fnend

	.section	".text._ZN6minimq11mqtt_client42MqttClient$LT$TcpStack$C$Clock$C$_$C$_$GT$7process17h160f6e2c1b0e553eE","ax",%progbits
	.p2align	2
	.type	minimq::mqtt_client::MqttClient<TcpStack,Clock,_,_>::process::h160f6e2c1b0e553e,%function
	.code	16
	.thumb_func
minimq::mqtt_client::MqttClient<TcpStack,Clock,_,_>::process::h160f6e2c1b0e553e:
.Lfunc_begin16:
	.fnstart
	.cfi_startproc
	.save	{r4, r5, r6, r7, lr}
	push	{r4, r5, r6, r7, lr}
	.cfi_def_cfa_offset 20
	.cfi_offset lr, -4
	.cfi_offset r7, -8
	.cfi_offset r6, -12
	.cfi_offset r5, -16
	.cfi_offset r4, -20
	.setfp	r7, sp, #12
	add	r7, sp, #12
	.cfi_def_cfa r7, 8
	.save	{r8, r9, r10, r11}
	push.w	{r8, r9, r10, r11}
	.cfi_offset r11, -24
	.cfi_offset r10, -28
	.cfi_offset r9, -32
	.cfi_offset r8, -36
	.pad	#620
	sub.w	sp, sp, #620
	mov	r9, r0
	ldr	r0, [r0]
	cmp	r0, #1
	bne.w	.LBB16_29
	ldr.w	r12, [r9, #8]
	add.w	r2, r12, #288
	ldrexb	r0, [r2]
	cbnz	r0, .LBB16_5
	dmb	sy
	movs	r1, #1
.LBB16_3:
	strexb	r6, r1, [r2]
	cbz	r6, .LBB16_6
	ldrexb	r0, [r2]
	cmp	r0, #0
	beq	.LBB16_3
.LBB16_5:
	clrex
	movs	r1, #0
.LBB16_6:
	dmb	sy
	cmp	r1, #0
	beq.w	.LBB16_190
	ldr.w	r0, [r12, #56]
	add.w	r1, r0, r0, lsl #3
	ldr.w	r0, [r12, #52]
	rsbs	r1, r1, #0
	lsls	r6, r1, #1
	movs	r1, #0
	adds	r5, r6, r1
	beq.w	.LBB16_94
.LBB16_8:
	ldrb	r4, [r0, r1]
	cbz	r4, .LBB16_16
	adds.w	r4, r5, #18
	beq.w	.LBB16_94
	adds	r4, r0, r1
	ldrb	r3, [r4, #18]
	cmp	r3, #0
	beq	.LBB16_24
	adds.w	r3, r5, #36
	beq.w	.LBB16_94
	ldrb.w	r3, [r4, #36]
	cmp	r3, #0
	beq	.LBB16_26
	adds.w	r3, r5, #54
	beq.w	.LBB16_94
	ldrb.w	r3, [r4, #54]
	cmp	r3, #0
	beq	.LBB16_27
	adds	r1, #72
	adds	r5, r6, r1
	bne	.LBB16_8
	b	.LBB16_94
.LBB16_16:
	add	r0, r1
	ldrb	r0, [r0, #1]
	cbz	r0, .LBB16_25
.LBB16_17:
	ldr.w	r0, [r9, #4]
	ldr.w	r1, [r12, #88]
	cmp	r1, r0
	bls.w	.LBB16_184
	mov.w	r1, #392
	ldr.w	r3, [r12, #84]
	mla	r0, r0, r1, r3
	ldr	r1, [r0, #40]!
	cmp	r1, #2
	bne.w	.LBB16_191
	ldrb.w	r1, [r0, #318]
	cmp	r1, #7
	it	ne
	cmpne	r1, #4
	bne	.LBB16_28
	ldr.w	r0, [r0, #212]
	movs	r3, #0
	dmb	sy
	strb	r3, [r2]
	subs	r1, #4
	dmb	sy
	cmp	r1, #3
	blo	.LBB16_22
	cbz	r0, .LBB16_29
.LBB16_22:
	ldrb.w	r0, [r9, #1776]
	cmp	r0, #2
	bne.w	.LBB16_44
	add.w	r10, r9, #1776
	movs	r0, #1
	strb.w	r0, [r10]
	b	.LBB16_47
.LBB16_24:
	add.w	r0, r4, #18
	ldrb	r0, [r0, #1]
	cmp	r0, #0
	bne	.LBB16_17
.LBB16_25:
	dmb	sy
	movs	r0, #0
	strb	r0, [r2]
	dmb	sy
	movs	r2, #5
	b	.LBB16_106
.LBB16_26:
	add.w	r0, r4, #36
	ldrb	r0, [r0, #1]
	cmp	r0, #0
	bne	.LBB16_17
	b	.LBB16_25
.LBB16_27:
	add.w	r0, r4, #54
	ldrb	r0, [r0, #1]
	cmp	r0, #0
	bne	.LBB16_17
	b	.LBB16_25
.LBB16_28:
	dmb	sy
	movs	r0, #0
	strb	r0, [r2]
	dmb	sy
.LBB16_29:
	ldrb.w	r0, [r9, #1776]
	cmp	r0, #3
	bhi	.LBB16_44
	cmp	r0, #2
	beq	.LBB16_44
	add.w	r10, r9, #1776
	movs	r0, #4
	strb.w	r0, [r10]
.LBB16_32:
	ldrd	r1, r0, [r9]
	cmp	r1, #1
	mov.w	r1, #0
	str.w	r1, [r9]
	bne.w	.LBB16_79
	ldr.w	r2, [r9, #8]
	add.w	r3, r2, #288
	ldrexb	r1, [r3]
	cbnz	r1, .LBB16_37
	dmb	sy
	movs	r6, #1
.LBB16_35:
	strexb	r5, r6, [r3]
	cbz	r5, .LBB16_38
	ldrexb	r1, [r3]
	cmp	r1, #0
	beq	.LBB16_35
.LBB16_37:
	clrex
	movs	r6, #0
.LBB16_38:
	dmb	sy
	cmp	r6, #0
	beq.w	.LBB16_195
	ldr	r1, [r2, #88]
	cmp	r1, r0
	bls.w	.LBB16_184
	mov.w	r1, #392
	ldr	r3, [r2, #84]
	mla	r1, r0, r1, r3
	ldr	r3, [r1, #40]!
	cmp	r3, #2
	bne.w	.LBB16_193
	ldrb.w	r6, [r1, #318]
	movs	r3, #0
.LCPI16_0:
	tbb	[pc, r6]
.LJTI16_0:
	.byte	(.LBB16_77-(.LCPI16_0+4))/2
	.byte	(.LBB16_76-(.LCPI16_0+4))/2
	.byte	(.LBB16_76-(.LCPI16_0+4))/2
	.byte	(.LBB16_43-(.LCPI16_0+4))/2
	.byte	(.LBB16_43-(.LCPI16_0+4))/2
	.byte	(.LBB16_77-(.LCPI16_0+4))/2
	.byte	(.LBB16_77-(.LCPI16_0+4))/2
	.byte	(.LBB16_75-(.LCPI16_0+4))/2
	.byte	(.LBB16_77-(.LCPI16_0+4))/2
	.byte	(.LBB16_77-(.LCPI16_0+4))/2
	.byte	(.LBB16_77-(.LCPI16_0+4))/2
	.p2align	1
.LBB16_43:
	movs	r3, #5
	b	.LBB16_76
.LBB16_44:
	cmp	r0, #1
	add.w	r10, r9, #1776
	beq	.LBB16_47
	cmp	r0, #2
	beq	.LBB16_50
	cmp	r0, #4
	beq	.LBB16_32
	b	.LBB16_102
.LBB16_47:
	movs	r0, #23
	strb.w	r0, [sp, #24]
	movs	r0, #6
	strb.w	r0, [sp, #44]
	mov.w	r0, #-1
	add.w	r8, sp, #76
	str	r0, [sp, #48]
	mov.w	r1, #512
	mov	r0, r8
	mov.w	r6, #512
	str	r6, [sp, #28]
	bl	__aeabi_memclr4
	movw	r1, #19923
	ldr.w	r11, [r9, #568]
	ldrd	r5, r0, [r9, #536]
	movt	r1, #4194
	cmp	r5, #0
	umull	r0, r1, r0, r1
	ldrb.w	r0, [r9, #1255]
	it	ne
	lsrne	r5, r1, #6
	ldrb.w	r1, [r9, #1773]
	clz	r0, r0
	lsrs	r0, r0, #5
	subs	r4, r1, #2
	it	ne
	addne.w	r4, r9, #1256
	cmp	r1, #2
	lsl.w	r1, r0, #1
	strd	r8, r6, [sp, #596]
	str	r6, [sp, #604]
	bne	.LBB16_66
.LBB16_48:
	movw	r0, :lower16:core::cmp::Ord::max::hdad388a91279e379
	movt	r0, :upper16:core::cmp::Ord::max::hdad388a91279e379
	cmp	r11, r0
	bls	.LBB16_69
	movs	r2, #1
	b	.LBB16_72
.LBB16_50:
	ldrb.w	r12, [r9, #1238]
	ldr.w	r1, [r9]
	ldr.w	r6, [r9, #1239]
	movs	r2, #0
	cmp.w	r12, #0
	it	ne
	movne	r6, r2
	cmp	r1, #1
	bne.w	.LBB16_74
	ldr.w	lr, [r9, #8]
	str.w	r2, [r9, #12]
	add.w	r11, lr, #288
	ldrexb	r1, [r11]
	cbnz	r1, .LBB16_55
	dmb	sy
	movs	r2, #1
.LBB16_53:
	strexb	r3, r2, [r11]
	cbz	r3, .LBB16_56
	ldrexb	r1, [r11]
	cmp	r1, #0
	beq	.LBB16_53
.LBB16_55:
	clrex
	movs	r2, #0
.LBB16_56:
	dmb	sy
	cmp	r2, #0
	beq.w	.LBB16_195
	ldr.w	r1, [lr, #56]
	add.w	r2, r1, r1, lsl #3
	ldr.w	r1, [lr, #52]
	rsbs	r2, r2, #0
	lsls	r3, r2, #1
	movs	r2, #0
	adds	r5, r3, r2
	beq.w	.LBB16_94
.LBB16_58:
	ldrb	r4, [r1, r2]
	cmp	r4, #0
	beq.w	.LBB16_141
	adds.w	r4, r5, #18
	beq.w	.LBB16_94
	adds	r4, r1, r2
	ldrb	r0, [r4, #18]
	cmp	r0, #0
	beq.w	.LBB16_142
	adds.w	r0, r5, #36
	beq.w	.LBB16_94
	ldrb.w	r0, [r4, #36]
	cmp	r0, #0
	beq.w	.LBB16_143
	adds.w	r0, r5, #54
	beq.w	.LBB16_94
	ldrb.w	r0, [r4, #54]
	cmp	r0, #0
	beq.w	.LBB16_144
	adds	r2, #72
	adds	r5, r3, r2
	bne	.LBB16_58
	b	.LBB16_94
.LBB16_66:
	ldr	r2, [r4]
	cmp.w	r2, #512
	bhi	.LBB16_71
	rsb.w	r6, r2, #512
	str	r1, [sp, #20]
	adds	r1, r4, #4
	add.w	r0, r8, r6
	bl	__aeabi_memcpy
	ldrb.w	r1, [r4, #517]
	str	r6, [sp, #604]
	ldrb.w	r0, [r4, #516]
	cmp	r1, #1
	ldr	r1, [sp, #20]
	orr.w	r0, r1, r0, lsl #3
	bne.w	.LBB16_129
	orr	r1, r0, #36
	b	.LBB16_48
.LBB16_69:
	cmp	r6, r11
	blo	.LBB16_71
	str.w	r10, [sp, #20]
	sub.w	r10, r6, r11
	mov	r4, r1
	add.w	r1, r9, #572
	add.w	r0, r8, r10
	mov	r2, r11
	bl	__aeabi_memcpy
	cmp.w	r10, #2
	bhs.w	.LBB16_130
.LBB16_71:
	movs	r2, #0
.LBB16_72:
	strb.w	r2, [sp, #65]
.LBB16_73:
	movs	r0, #6
	mov	r1, r2
	add.w	sp, sp, #620
	pop.w	{r8, r9, r10, r11}
	pop	{r4, r5, r6, r7, pc}
.LBB16_74:
	movs	r0, #2
	uxtb	r1, r0
	cmp	r1, #9
	bne.w	.LBB16_106
	b	.LBB16_102
.LBB16_75:
	movs	r3, #9
.LBB16_76:
	strb.w	r3, [r1, #318]
.LBB16_77:
	ldr.w	r1, [r2, #184]
	cmp	r1, #16
	bhs.w	.LBB16_197
	add.w	r1, r2, r1, lsl #2
	str	r0, [r1, #120]
	ldr.w	r0, [r2, #184]
	adds	r0, #1
	str.w	r0, [r2, #184]
	dmb	sy
	movs	r0, #0
	strb.w	r0, [r2, #288]
	dmb	sy
.LBB16_79:
	ldr.w	r12, [r9, #8]
	add.w	r3, r12, #288
	ldrexb	r0, [r3]
	cbnz	r0, .LBB16_83
	dmb	sy
	movs	r1, #1
.LBB16_81:
	strexb	r6, r1, [r3]
	cbz	r6, .LBB16_84
	ldrexb	r0, [r3]
	cmp	r0, #0
	beq	.LBB16_81
.LBB16_83:
	clrex
	movs	r1, #0
.LBB16_84:
	dmb	sy
	cmp	r1, #0
	beq.w	.LBB16_190
	ldr.w	r0, [r12, #56]
	add.w	r1, r0, r0, lsl #3
	ldr.w	r0, [r12, #52]
	rsbs	r1, r1, #0
	lsls	r6, r1, #1
	movs	r1, #0
	adds	r5, r6, r1
	beq	.LBB16_94
.LBB16_86:
	ldrb	r4, [r0, r1]
	cbz	r4, .LBB16_95
	adds.w	r4, r5, #18
	beq	.LBB16_94
	adds	r4, r0, r1
	ldrb	r2, [r4, #18]
	cmp	r2, #0
	beq	.LBB16_107
	adds.w	r2, r5, #36
	beq	.LBB16_94
	ldrb.w	r2, [r4, #36]
	cmp	r2, #0
	beq	.LBB16_109
	adds.w	r2, r5, #54
	beq	.LBB16_94
	ldrb.w	r2, [r4, #54]
	cmp	r2, #0
	beq	.LBB16_110
	adds	r1, #72
	adds	r5, r6, r1
	bne	.LBB16_86
.LBB16_94:
	movw	r0, :lower16:.Lanon.a766a8867b32155983aeb12c9f88ad10.275
	movw	r2, :lower16:.Lanon.0c1329e98a8e4daf707f1d3aba20b49b.63
	movt	r0, :upper16:.Lanon.a766a8867b32155983aeb12c9f88ad10.275
	movt	r2, :upper16:.Lanon.0c1329e98a8e4daf707f1d3aba20b49b.63
	movs	r1, #43
	bl	core::panicking::panic::ha0d68f1d939a874b
	.inst.n	0xdefe
.LBB16_95:
	add	r0, r1
	ldrb	r0, [r0, #1]
	cmp	r0, #0
	beq	.LBB16_108
.LBB16_96:
	ldr.w	r0, [r12, #184]
	cmp	r0, #0
	beq	.LBB16_111
	subs	r0, #1
	str.w	r0, [r12, #184]
	add.w	r1, r12, r0, lsl #2
	ldr	r0, [r1, #120]
	ldr.w	r1, [r12, #88]
	cmp	r1, r0
	bls.w	.LBB16_184
	mov.w	r1, #392
	ldr.w	r2, [r12, #84]
	mla	r2, r0, r1, r2
	ldr	r1, [r2, #40]!
	cmp	r1, #2
	bne.w	.LBB16_191
	movs	r1, #0
	strb.w	r1, [r2, #318]
	dmb	sy
	strb	r1, [r3]
	movs	r3, #1
	dmb	sy
	ldrb.w	r2, [r9, #1776]
	str.w	r3, [r9]
	str.w	r0, [r9, #4]
	cmp	r2, #4
	bne.w	.LBB16_198
	movs	r0, #2
.LBB16_101:
	strb.w	r0, [r10]
.LBB16_102:
	add	r5, sp, #76
	add.w	r1, r9, #12
	mov.w	r2, #520
	mov	r0, r5
	bl	__aeabi_memcpy4
	ldr	r0, [sp, #76]
	movs	r1, #0
	cmp	r0, #1
	str.w	r1, [r9, #12]
	bne	.LBB16_105
	add.w	r1, r5, #8
	ldr	r2, [sp, #80]
	mov	r0, r9
	bl	minimq::network_manager::InterfaceHolder<TcpStack,_>::write::h19b74f0c592580bd
	uxtb	r2, r0
	cmp	r2, #9
	bne.w	.LBB16_188
	ldr.w	r0, [r9, #12]
	subs	r0, #1
	clz	r0, r0
	lsrs	r1, r0, #5
.LBB16_105:
	ldrb.w	r0, [r10]
	movs	r2, #0
	cmp	r0, #0
	mov.w	r0, #9
	it	eq
	cmpeq	r1, #0
	beq	.LBB16_113
.LBB16_106:
	mov	r1, r2
	add.w	sp, sp, #620
	pop.w	{r8, r9, r10, r11}
	pop	{r4, r5, r6, r7, pc}
.LBB16_107:
	add.w	r0, r4, #18
	ldrb	r0, [r0, #1]
	cmp	r0, #0
	bne	.LBB16_96
.LBB16_108:
	movs	r2, #5
	b	.LBB16_112
.LBB16_109:
	add.w	r0, r4, #36
	ldrb	r0, [r0, #1]
	cmp	r0, #0
	bne	.LBB16_96
	b	.LBB16_108
.LBB16_110:
	add.w	r0, r4, #54
	ldrb	r0, [r0, #1]
	cmp	r0, #0
	bne	.LBB16_96
	b	.LBB16_108
.LBB16_111:
	movs	r2, #0
.LBB16_112:
	dmb	sy
	movs	r0, #0
	strb	r0, [r3]
	dmb	sy
	mov	r1, r2
	add.w	sp, sp, #620
	pop.w	{r8, r9, r10, r11}
	pop	{r4, r5, r6, r7, pc}
.LBB16_113:
	ldr.w	r0, [r9, #532]
	blx	r0
	ldr.w	r1, [r9, #544]
	mov	r5, r0
	cmp	r1, #1
	bne	.LBB16_117
	ldr.w	r1, [r9, #548]
	movs	r2, #0
	cmp	r5, r1
	mov.w	r0, #9
	beq	.LBB16_106
	subs	r1, r5, r1
	mvn	r3, #-2147483648
	cmp	r1, r3
	bhs	.LBB16_106
	movs	r0, #4
	strb.w	r0, [r10]
	movs	r2, #0
	movs	r0, #9
	mov	r1, r2
	add.w	sp, sp, #620
	pop.w	{r8, r9, r10, r11}
	pop	{r4, r5, r6, r7, pc}
.LBB16_117:
	ldr.w	r0, [r9, #536]
	movs	r2, #0
	cmp	r0, #1
	mov.w	r0, #9
	bne	.LBB16_106
	ldr.w	r1, [r9, #552]
	cmp	r1, #0
	itt	ne
	ldrne.w	r1, [r9, #556]
	subsne.w	r1, r5, r1
	beq	.LBB16_106
	mvn	r3, #-2147483648
	cmp	r1, r3
	bhs	.LBB16_106
	add	r0, sp, #76
	movs	r1, #1
	mov.w	r2, #1000
	movs	r3, #1
	ldr.w	r4, [r9, #540]
	mov.w	r6, #1000
	str	r6, [sp]
	bl	embedded_time::fraction::Fraction::checked_div::hd5f447229dd00813
	ldr	r0, [sp, #76]
	cmp	r0, #0
	beq.w	.LBB16_202
	lsrs	r0, r4, #1
	ldr	r1, [sp, #80]
	umull	r0, r1, r0, r1
	cmp	r1, #0
	bne.w	.LBB16_202
	ldr	r1, [sp, #84]
	cmp	r1, #0
	beq.w	.LBB16_202
	udiv	r0, r0, r1
	cmp.w	r0, #-1
	ble.w	.LBB16_202
	add	r0, r5
	movs	r1, #1
	str.w	r0, [r9, #556]
	add	r6, sp, #76
	mov.w	r0, #1000
	str.w	r1, [r9, #552]
	movs	r1, #1
	movs	r2, #1
	movs	r3, #1
	str	r0, [sp]
	mov	r0, r6
	bl	embedded_time::fraction::Fraction::checked_div::hd5f447229dd00813
	ldr	r0, [sp, #76]
	cmp	r0, #0
	beq.w	.LBB16_202
	ldr	r0, [sp, #80]
	movs	r1, #5
	umull	r0, r1, r0, r1
	cmp	r1, #0
	bne.w	.LBB16_202
	ldr	r1, [sp, #84]
	cmp	r1, #0
	beq.w	.LBB16_202
	udiv	r0, r0, r1
	cmp.w	r0, #-1
	ble.w	.LBB16_202
	movs	r1, #1
	add	r0, r5
	str.w	r1, [r9, #544]
	mov.w	r1, #510
	str.w	r0, [r9, #548]
	mov	r0, r6
	bl	__aeabi_memclr4
	movs	r0, #192
	add.w	r1, r6, #510
	strh.w	r0, [sp, #586]
	movs	r2, #2
	mov	r0, r9
	bl	minimq::network_manager::InterfaceHolder<TcpStack,_>::write::h19b74f0c592580bd
	uxtb	r2, r0
	subs	r2, #9
	it	ne
	movne	r2, r1
	mov	r1, r2
	add.w	sp, sp, #620
	pop.w	{r8, r9, r10, r11}
	pop	{r4, r5, r6, r7, pc}
.LBB16_129:
	orr	r1, r0, #4
	b	.LBB16_48
.LBB16_130:
	cmp.w	r10, #512
	bhi.w	.LBB16_203
	sub.w	r0, r10, #2
	str	r0, [sp, #604]
	rev.w	r1, r11
	movs	r2, #2
	lsrs	r1, r1, #16
	strh.w	r1, [r8, r0]
	add	r0, sp, #596
	add	r1, sp, #24
	bl	minimq::ser::packet_writer::ReversedPacketWriter::write_properties::h502ebb0001b99ed2
	uxtb	r2, r0
	cmp	r2, #11
	bne.w	.LBB16_72
	ldr	r0, [sp, #604]
	cmp	r0, #2
	blo.w	.LBB16_71
	ldr	r1, [sp, #600]
	cmp	r0, r1
	bhi.w	.LBB16_205
	ldr	r1, [sp, #596]
	subs	r3, r0, #2
	rev	r2, r5
	lsr.w	r2, r2, #16
	strh	r2, [r1, r3]
	str	r3, [sp, #604]
	beq.w	.LBB16_71
	ldr	r1, [sp, #600]
	cmp	r3, r1
	bhi.w	.LBB16_204
	ldr	r1, [sp, #596]
	subs	r3, r0, #3
	strb	r4, [r1, r3]
	str	r3, [sp, #604]
	beq.w	.LBB16_71
	ldr	r1, [sp, #600]
	cmp	r3, r1
	bhi.w	.LBB16_204
	ldr	r1, [sp, #596]
	subs	r0, #4
	movs	r2, #5
	strb	r2, [r1, r0]
	movw	r1, :lower16:.Lanon.0c1329e98a8e4daf707f1d3aba20b49b.66
	str	r0, [sp, #604]
	movt	r1, :upper16:.Lanon.0c1329e98a8e4daf707f1d3aba20b49b.66
	add	r0, sp, #596
	movs	r2, #4
	bl	minimq::ser::packet_writer::ReversedPacketWriter::write_utf8_string::hef12e04e07667af0
	uxtb	r2, r0
	cmp	r2, #11
	bne.w	.LBB16_72
	ldr	r0, [sp, #604]
	str	r0, [sp, #616]
	ldr	r0, [sp, #600]
	str	r0, [sp, #612]
	ldr	r0, [sp, #596]
	str	r0, [sp, #608]
	add	r0, sp, #64
	add	r1, sp, #608
	movs	r2, #1
	movs	r3, #0
	bl	minimq::ser::packet_writer::ReversedPacketWriter::finalize::h384e5c658c82f6d2
	ldrb.w	r0, [sp, #64]
	cmp	r0, #0
	beq.w	.LBB16_185
	ldrb.w	r2, [sp, #65]
	b	.LBB16_73
.LBB16_141:
	add	r1, r2
	b	.LBB16_145
.LBB16_142:
	add.w	r1, r4, #18
	b	.LBB16_145
.LBB16_143:
	add.w	r1, r4, #36
	b	.LBB16_145
.LBB16_144:
	add.w	r1, r4, #54
.LBB16_145:
	ldrb	r0, [r1, #1]
	movs	r4, #0
	cbz	r0, .LBB16_151
	ldr.w	r5, [r9, #4]
	ldr.w	r1, [lr, #88]
	cmp	r1, r5
	bls.w	.LBB16_189
	mov.w	r0, #392
	ldr.w	r8, [lr, #84]
	mla	r2, r5, r0, r8
	ldr	r3, [r2, #40]!
	cmp	r3, #2
	bne.w	.LBB16_193
	ldrb.w	r2, [r2, #318]
	cmp	r2, #10
	it	ne
	cmpne	r2, #0
	bne.w	.LBB16_180
	cmp.w	r12, #0
	mov.w	r0, #0
	beq	.LBB16_152
	movs	r2, #4
	b	.LBB16_183
.LBB16_151:
	movs	r2, #5
	movs	r0, #0
	b	.LBB16_183
.LBB16_152:
	strd	r5, r6, [sp, #8]
	movw	r3, #25647
	movw	r6, #7524
	movw	r5, #32465
	movw	r4, #10459
	str.w	r10, [sp, #20]
	movt	r3, #30909
	movt	r6, #41078
	movt	r5, #59139
	movt	r4, #41140
	str.w	lr, [sp, #16]
.LBB16_153:
	ldrd	r0, r2, [lr, #104]
	adds	r0, r0, r3
	mov.w	r3, #0
	adcs	r2, r6
	eor.w	lr, r2, r5
	eor.w	r5, r0, r4
	umull	r12, r4, r5, r0
	umlal	r4, r3, lr, r0
	umull	r5, r10, r5, r2
	adds	r4, r4, r5
	adc.w	r3, r3, r10
	mla	r3, lr, r2, r3
	ldr.w	lr, [sp, #16]
	eor.w	r3, r3, r12
	strd	r0, r2, [lr, #104]
	rev	r3, r3
	mov.w	r2, #392
	lsrs	r3, r3, #16
	mla	r10, r1, r2, r8
	movw	r1, #49152
	add.w	r5, r3, r3, lsl #2
	movt	r1, #65535
	sub.w	r4, r3, r5, lsr #16
	uxth	r4, r4
	lsrs	r4, r4, #1
	add.w	r5, r4, r5, lsr #16
	movs	r4, #0
	add.w	r0, r3, r5, lsr #13
	ldr	r3, [sp, #12]
	orr.w	r6, r0, r1
	ldr	r5, [sp, #8]
.LBB16_154:
	mov	r0, r8
.LBB16_155:
	cmp	r0, r10
	beq	.LBB16_174
	ldr	r1, [r0, #40]
	add.w	r2, r0, #392
	cmp	r1, #4
	bne	.LBB16_166
	cmp	r2, r10
	beq	.LBB16_174
	ldr.w	r1, [r0, #432]
	add.w	r8, r0, #784
	cmp	r1, #4
	bne	.LBB16_164
	cmp	r8, r10
	beq	.LBB16_174
	ldr.w	r1, [r0, #824]
	add.w	r2, r0, #1176
	cmp	r1, #4
	bne	.LBB16_165
	cmp	r2, r10
	beq	.LBB16_174
	ldr.w	r1, [r0, #1216]
	add.w	r8, r0, #1568
	cmp	r1, #4
	mov	r0, r8
	beq	.LBB16_155
	sub.w	r0, r8, #392
	b	.LBB16_167
.LBB16_164:
	mov	r0, r2
	b	.LBB16_167
.LBB16_165:
	mov	r0, r8
.LBB16_166:
	mov	r8, r2
.LBB16_167:
	cmp	r1, #2
	add.w	r0, r0, #40
	beq	.LBB16_170
	cmp	r1, #1
	bne	.LBB16_154
	add.w	r12, r0, #68
	str	r6, [sp, #4]
	b	.LBB16_171
.LBB16_170:
	str	r6, [sp, #4]
	add.w	r12, r0, #276
.LBB16_171:
	add	r0, sp, #76
	mov	r1, r0
	ldm.w	r12, {r2, r3, r4, r5, r6}
	stm	r1!, {r2, r3, r4, r5, r6}
	ldr	r5, [sp, #8]
	movs	r4, #0
	bl	smoltcp::wire::ip::Endpoint::is_specified::h5bbec8f8783a27da
	ldr	r6, [sp, #4]
	cmp	r0, #0
	ldrd	r3, lr, [sp, #12]
	beq	.LBB16_154
	ldrh.w	r0, [sp, #76]
	uxth	r1, r6
	cmp	r0, r1
	bne	.LBB16_154
	movw	r3, #25647
	movw	r6, #7524
	movw	r5, #32465
	movw	r4, #10459
	ldrd	r8, r1, [lr, #84]
	movt	r3, #30909
	movt	r6, #41078
	movt	r5, #59139
	movt	r4, #41140
	b	.LBB16_153
.LBB16_174:
	ldr.w	r1, [lr, #88]
	cmp	r1, r5
	bls.w	.LBB16_189
	mov.w	r0, #392
	ldr.w	r1, [lr, #84]
	mla	r0, r5, r0, r1
	ldr	r1, [r0, #40]!
	cmp	r1, #4
	beq.w	.LBB16_192
	mov.w	r10, #0
	cmp	r1, #2
	it	eq
	addeq.w	r10, r0, #8
	bne.w	.LBB16_194
	movs	r0, #1
	str.w	r3, [sp, #79]
	strb.w	r0, [sp, #78]
	movw	r0, #1883
	strh.w	r0, [sp, #76]
	ldrb.w	r0, [r10, #310]
	cmp	r0, #10
	it	ne
	cmpne	r0, #0
	bne	.LBB16_181
	add.w	r8, sp, #76
	mov	r0, r8
	bl	smoltcp::wire::ip::Endpoint::is_specified::h5bbec8f8783a27da
	cmp	r0, #0
	beq	.LBB16_181
	mov	r0, r10
	bl	smoltcp::socket::tcp::TcpSocket::reset::h3eed303dba5cd1e6
	movs	r0, #1
	strb.w	r0, [r10, #270]
	ldr	r0, [sp, #24]
	str.w	r0, [r10, #275]
	ldr	r0, [sp, #28]
	str.w	r0, [r10, #279]
	ldr	r0, [sp, #32]
	movs	r2, #0
	str.w	r2, [r10, #271]
	str.w	r0, [r10, #283]
	add.w	r0, r10, #288
	strh.w	r6, [r10, #268]
	ldm.w	r8, {r1, r3, r4, r5, r6}
	stm	r0!, {r1, r3, r4, r5, r6}
	ldr	r6, [sp, #16]
	movs	r0, #2
	strb.w	r0, [r10, #310]
	movw	r3, #24861
	ldrd	r0, r1, [r6, #24]
	movt	r3, #15417
	movw	r4, #64748
	umull	r12, r5, r0, r3
	movt	r4, #47918
	muls	r1, r3, r1
	movw	r3, #61241
	mla	r0, r0, r4, r5
	movt	r3, #30096
	adds.w	r3, r3, r12
	mov.w	r4, #0
	adcs	r0, r1
	movs	r1, #29
	strd	r3, r0, [r6, #24]
	sub.w	r1, r1, r0, lsr #29
	lsls	r0, r0, #1
	eor	r6, r1, #31
	lsls	r0, r6
	lsr.w	r1, r3, r1
	orrs	r0, r1
	str.w	r0, [r10, #224]
	str.w	r0, [r10, #232]
	movs	r0, #9
	b	.LBB16_182
.LBB16_180:
	movs	r2, #0
	movs	r0, #9
	b	.LBB16_183
.LBB16_181:
	movs	r2, #1
	movs	r0, #0
.LBB16_182:
	ldr.w	r10, [sp, #20]
.LBB16_183:
	dmb	sy
	strb.w	r4, [r11]
	dmb	sy
	uxtb	r1, r0
	cmp	r1, #9
	bne.w	.LBB16_106
	b	.LBB16_102
.LBB16_184:
	movw	r2, :lower16:.Lanon.0c1329e98a8e4daf707f1d3aba20b49b.153
	movt	r2, :upper16:.Lanon.0c1329e98a8e4daf707f1d3aba20b49b.153
	bl	core::panicking::panic_bounds_check::h693951cbac28abbe
	.inst.n	0xdefe
.LBB16_185:
	ldrd	r1, r2, [sp, #68]
	mov	r0, r9
	bl	minimq::network_manager::InterfaceHolder<TcpStack,_>::write::h19b74f0c592580bd
	uxtb	r2, r0
	cmp	r2, #9
	bne	.LBB16_188
	ldr.w	r10, [sp, #20]
	ldrb.w	r0, [r10]
	cmp	r0, #1
	bne.w	.LBB16_206
	movs	r0, #3
	b	.LBB16_101
.LBB16_188:
	mov	r2, r1
	mov	r1, r2
	add.w	sp, sp, #620
	pop.w	{r8, r9, r10, r11}
	pop	{r4, r5, r6, r7, pc}
.LBB16_189:
	movw	r2, :lower16:.Lanon.0c1329e98a8e4daf707f1d3aba20b49b.153
	mov	r0, r5
	movt	r2, :upper16:.Lanon.0c1329e98a8e4daf707f1d3aba20b49b.153
	bl	core::panicking::panic_bounds_check::h693951cbac28abbe
	.inst.n	0xdefe
.LBB16_190:
	cmp	r0, #0
	it	ne
	movne	r0, #1
	strb.w	r0, [sp, #76]
	b	.LBB16_196
.LBB16_191:
	cmp	r1, #4
	bne	.LBB16_194
.LBB16_192:
	movw	r0, :lower16:.Lanon.0c1329e98a8e4daf707f1d3aba20b49b.156
	movw	r2, :lower16:.Lanon.0c1329e98a8e4daf707f1d3aba20b49b.157
	movt	r0, :upper16:.Lanon.0c1329e98a8e4daf707f1d3aba20b49b.156
	movt	r2, :upper16:.Lanon.0c1329e98a8e4daf707f1d3aba20b49b.157
	movs	r1, #39
	bl	core::panicking::panic::ha0d68f1d939a874b
	.inst.n	0xdefe
.LBB16_193:
	cmp	r3, #4
	beq	.LBB16_192
.LBB16_194:
	movw	r0, :lower16:.Lanon.0c1329e98a8e4daf707f1d3aba20b49b.154
	movw	r2, :lower16:.Lanon.0c1329e98a8e4daf707f1d3aba20b49b.155
	movt	r0, :upper16:.Lanon.0c1329e98a8e4daf707f1d3aba20b49b.154
	movt	r2, :upper16:.Lanon.0c1329e98a8e4daf707f1d3aba20b49b.155
	movs	r1, #41
	bl	core::option::expect_failed::h22026eb39ea9589c
	.inst.n	0xdefe
.LBB16_195:
	cmp	r1, #0
	it	ne
	movne	r1, #1
	strb.w	r1, [sp, #76]
.LBB16_196:
	movw	r6, :lower16:.Lanon.0c1329e98a8e4daf707f1d3aba20b49b.7
	movw	r0, :lower16:.Lanon.0c1329e98a8e4daf707f1d3aba20b49b.5
	movw	r3, :lower16:.Lanon.0c1329e98a8e4daf707f1d3aba20b49b.360
	movt	r6, :upper16:.Lanon.0c1329e98a8e4daf707f1d3aba20b49b.7
	movt	r0, :upper16:.Lanon.0c1329e98a8e4daf707f1d3aba20b49b.5
	movt	r3, :upper16:.Lanon.0c1329e98a8e4daf707f1d3aba20b49b.360
	add	r2, sp, #76
	movs	r1, #12
	b	.LBB16_201
.LBB16_197:
	str	r0, [sp, #76]
	movw	r6, :lower16:.Lanon.0c1329e98a8e4daf707f1d3aba20b49b.64
	movw	r0, :lower16:.Lanon.0c1329e98a8e4daf707f1d3aba20b49b.363
	movw	r3, :lower16:.Lanon.0c1329e98a8e4daf707f1d3aba20b49b.372
	movt	r6, :upper16:.Lanon.0c1329e98a8e4daf707f1d3aba20b49b.64
	movt	r0, :upper16:.Lanon.0c1329e98a8e4daf707f1d3aba20b49b.363
	movt	r3, :upper16:.Lanon.0c1329e98a8e4daf707f1d3aba20b49b.372
	b	.LBB16_199
.LBB16_198:
	movw	r6, :lower16:.Lanon.0c1329e98a8e4daf707f1d3aba20b49b.107
	movw	r0, :lower16:.Lanon.0c1329e98a8e4daf707f1d3aba20b49b.363
	movw	r3, :lower16:.Lanon.0c1329e98a8e4daf707f1d3aba20b49b.368
	strb.w	r1, [sp, #76]
	movt	r6, :upper16:.Lanon.0c1329e98a8e4daf707f1d3aba20b49b.107
	movt	r0, :upper16:.Lanon.0c1329e98a8e4daf707f1d3aba20b49b.363
	movt	r3, :upper16:.Lanon.0c1329e98a8e4daf707f1d3aba20b49b.368
.LBB16_199:
	add	r2, sp, #76
.LBB16_200:
	movs	r1, #43
.LBB16_201:
	str	r6, [sp]
	bl	core::result::unwrap_failed::he67be68ddf63c991
	.inst.n	0xdefe
.LBB16_202:
	movw	r0, :lower16:.Lanon.0c1329e98a8e4daf707f1d3aba20b49b.116
	movw	r2, :lower16:.Lanon.0c1329e98a8e4daf707f1d3aba20b49b.118
	movt	r0, :upper16:.Lanon.0c1329e98a8e4daf707f1d3aba20b49b.116
	movt	r2, :upper16:.Lanon.0c1329e98a8e4daf707f1d3aba20b49b.118
	movs	r1, #10
	bl	core::panicking::panic::ha0d68f1d939a874b
	.inst.n	0xdefe
.LBB16_203:
	movw	r2, :lower16:.Lanon.1dae7de82751de57b633ec762d574f68.4
	mov.w	r1, #512
	movt	r2, :upper16:.Lanon.1dae7de82751de57b633ec762d574f68.4
	mov	r0, r10
	bl	core::slice::index::slice_end_index_len_fail::h5a91c503035fd6a0
	.inst.n	0xdefe
.LBB16_204:
	movw	r2, :lower16:.Lanon.1dae7de82751de57b633ec762d574f68.4
	mov	r0, r3
	movt	r2, :upper16:.Lanon.1dae7de82751de57b633ec762d574f68.4
	bl	core::slice::index::slice_end_index_len_fail::h5a91c503035fd6a0
	.inst.n	0xdefe
.LBB16_205:
	movw	r2, :lower16:.Lanon.1dae7de82751de57b633ec762d574f68.4
	movt	r2, :upper16:.Lanon.1dae7de82751de57b633ec762d574f68.4
	bl	core::slice::index::slice_end_index_len_fail::h5a91c503035fd6a0
	.inst.n	0xdefe
.LBB16_206:
	movs	r0, #0
	strb.w	r0, [sp, #608]
	movw	r6, :lower16:.Lanon.0c1329e98a8e4daf707f1d3aba20b49b.108
	movw	r0, :lower16:.Lanon.0c1329e98a8e4daf707f1d3aba20b49b.363
	movw	r3, :lower16:.Lanon.0c1329e98a8e4daf707f1d3aba20b49b.368
	movt	r6, :upper16:.Lanon.0c1329e98a8e4daf707f1d3aba20b49b.108
	movt	r0, :upper16:.Lanon.0c1329e98a8e4daf707f1d3aba20b49b.363
	movt	r3, :upper16:.Lanon.0c1329e98a8e4daf707f1d3aba20b49b.368
	add	r2, sp, #608
	b	.LBB16_200
.Lfunc_end16:
	.size	minimq::mqtt_client::MqttClient<TcpStack,Clock,_,_>::process::h160f6e2c1b0e553e, .Lfunc_end16-minimq::mqtt_client::MqttClient<TcpStack,Clock,_,_>::process::h160f6e2c1b0e553e
	.cfi_endproc
	.cantunwind
	.fnend

	.section	.text._ZN7smoltcp5iface9interface14InterfaceInner11has_ip_addr17h39bdf4874bad6135E,"ax",%progbits
	.p2align	1
	.type	smoltcp::iface::interface::InterfaceInner::has_ip_addr::h39bdf4874bad6135,%function
	.code	16
	.thumb_func
smoltcp::iface::interface::InterfaceInner::has_ip_addr::h39bdf4874bad6135:
.Lfunc_begin17:
	.fnstart
	.cfi_startproc
	ldr	r2, [r0, #56]
	cbz	r2, .LBB17_15
	ldr	r3, [r0, #52]
	add.w	r0, r2, r2, lsl #3
	add.w	r2, r3, #55
	add.w	r12, r3, r0, lsl #1
	b	.LBB17_3
.LBB17_2:
	add.w	r0, r3, #18
	adds	r2, #72
	cmp	r12, r0
	beq	.LBB17_15
.LBB17_3:
	mov	r3, r2
	ldrb	r0, [r3, #-55]!
	cbnz	r0, .LBB17_5
	ldr	r0, [r2, #-54]
	cmp	r0, r1
	beq	.LBB17_14
.LBB17_5:
	adds	r3, #18
	cmp	r12, r3
	beq	.LBB17_15
	ldrb	r0, [r3]
	cbnz	r0, .LBB17_8
	ldr	r0, [r2, #-36]
	cmp	r0, r1
	beq	.LBB17_14
.LBB17_8:
	adds	r3, #18
	cmp	r12, r3
	beq	.LBB17_15
	ldrb	r0, [r3]
	cbnz	r0, .LBB17_11
	ldr	r0, [r2, #-18]
	cmp	r0, r1
	beq	.LBB17_14
.LBB17_11:
	adds	r3, #18
	cmp	r12, r3
	beq	.LBB17_15
	ldrb	r0, [r3]
	cmp	r0, #0
	bne	.LBB17_2
	ldr	r0, [r2]
	cmp	r0, r1
	bne	.LBB17_2
.LBB17_14:
	movs	r0, #1
	bx	lr
.LBB17_15:
	movs	r0, #0
	bx	lr
.Lfunc_end17:
	.size	smoltcp::iface::interface::InterfaceInner::has_ip_addr::h39bdf4874bad6135, .Lfunc_end17-smoltcp::iface::interface::InterfaceInner::has_ip_addr::h39bdf4874bad6135
	.cfi_endproc
	.cantunwind
	.fnend

	.section	.text._ZN15serde_json_core2de8from_str17hba2caa47f21d3896E,"ax",%progbits
	.p2align	1
	.type	serde_json_core::de::from_str::hba2caa47f21d3896,%function
	.code	16
	.thumb_func
serde_json_core::de::from_str::hba2caa47f21d3896:
.Lfunc_begin18:
	.fnstart
	.cfi_startproc
	.save	{r4, r5, r6, r7, lr}
	push	{r4, r5, r6, r7, lr}
	.cfi_def_cfa_offset 20
	.cfi_offset lr, -4
	.cfi_offset r7, -8
	.cfi_offset r6, -12
	.cfi_offset r5, -16
	.cfi_offset r4, -20
	.setfp	r7, sp, #12
	add	r7, sp, #12
	.cfi_def_cfa r7, 8
	.save	{r8, r9, r10, r11}
	push.w	{r8, r9, r10, r11}
	.cfi_offset r11, -24
	.cfi_offset r10, -28
	.cfi_offset r9, -32
	.cfi_offset r8, -36
	.pad	#8
	sub	sp, #8
	cmp	r2, #0
	mov	r4, r0
	beq	.LBB18_15
	movw	r11, #19
	rsb.w	r12, r2, #0
	sub.w	lr, r2, #1
	mov.w	r9, #0
	mov.w	r8, #1
	movt	r11, #128
	str	r4, [sp, #4]
.LBB18_2:
	ldrb.w	r5, [r1, r9]
	sub.w	r3, r5, #9
	cmp	r3, #23
	bhi	.LBB18_19
	lsl.w	r3, r8, r3
	tst.w	r3, r11
	beq	.LBB18_19
	cmp	lr, r9
	beq	.LBB18_14
	add.w	r3, r1, r9
	ldrb	r5, [r3, #1]
	sub.w	r6, r5, #9
	cmp	r6, #23
	bhi	.LBB18_17
	lsl.w	r4, r8, r6
	tst.w	r4, r11
	beq	.LBB18_17
	add.w	r6, r12, r9
	adds	r4, r6, #2
	beq	.LBB18_14
	ldrb	r5, [r3, #2]
	sub.w	r4, r5, #9
	cmp	r4, #23
	bhi	.LBB18_18
	lsl.w	r4, r8, r4
	tst.w	r4, r11
	beq	.LBB18_18
	adds	r4, r6, #3
	beq	.LBB18_14
	ldrb	r5, [r3, #3]
	sub.w	r3, r5, #9
	cmp	r3, #23
	bhi.w	.LBB18_43
	lsl.w	r3, r8, r3
	tst.w	r3, r11
	beq.w	.LBB18_43
	add.w	r9, r9, #4
	cmp	r2, r9
	bne	.LBB18_2
.LBB18_14:
	movs	r6, #4
	ldr	r4, [sp, #4]
	b	.LBB18_16
.LBB18_15:
	movs	r6, #4
.LBB18_16:
	strb	r6, [r4, #1]
	movs	r1, #1
	strb	r1, [r4]
	add	sp, #8
	pop.w	{r8, r9, r10, r11}
	pop	{r4, r5, r6, r7, pc}
.LBB18_17:
	add.w	r9, r9, #1
	cmp	r5, #45
	bne	.LBB18_20
	b	.LBB18_44
.LBB18_18:
	add.w	r9, r9, #2
.LBB18_19:
	cmp	r5, #45
	beq.w	.LBB18_44
.LBB18_20:
	cmp	r5, #48
	bne	.LBB18_37
	add.w	r9, r9, #1
	mov.w	r10, #0
	ldr	r4, [sp, #4]
	cmp	r9, r2
	bhs	.LBB18_36
.LBB18_22:
	str.w	r10, [sp, #4]
	mov.w	r10, #1
.LBB18_23:
	ldrb.w	r0, [r1, r9]
	movs	r6, #14
	sub.w	r3, r0, #9
	cmp	r3, #23
	bhi	.LBB18_16
	lsl.w	r0, r10, r3
	tst.w	r0, r11
	beq	.LBB18_16
	cmp	r9, lr
	beq	.LBB18_35
	add.w	r8, r1, r9
	movs	r6, #14
	ldrb.w	r0, [r8, #1]
	sub.w	r3, r0, #9
	cmp	r3, #23
	bhi	.LBB18_16
	lsl.w	r0, r10, r3
	tst.w	r0, r11
	beq	.LBB18_16
	add.w	r3, r9, r12
	adds	r0, r3, #2
	beq	.LBB18_35
	ldrb.w	r0, [r8, #2]
	movs	r6, #14
	sub.w	r5, r0, #9
	cmp	r5, #23
	bhi	.LBB18_16
	lsl.w	r0, r10, r5
	tst.w	r0, r11
	beq	.LBB18_16
	adds	r0, r3, #3
	beq	.LBB18_35
	ldrb.w	r0, [r8, #3]
	movs	r6, #14
	sub.w	r3, r0, #9
	cmp	r3, #23
	bhi	.LBB18_16
	lsl.w	r0, r10, r3
	tst.w	r0, r11
	beq	.LBB18_16
	add.w	r12, r12, #4
	adds	r1, #4
	adds.w	r0, r9, r12
	sub.w	lr, lr, #4
	bne	.LBB18_23
.LBB18_35:
	mov	r9, r2
	ldr.w	r10, [sp, #4]
.LBB18_36:
	movs	r1, #0
	strd	r10, r9, [r4, #4]
	strb	r1, [r4]
	add	sp, #8
	pop.w	{r8, r9, r10, r11}
	pop	{r4, r5, r6, r7, pc}
.LBB18_37:
	sub.w	r3, r5, #49
	uxtb	r3, r3
	cmp	r3, #9
	bhs	.LBB18_45
	add.w	r9, r9, #1
	sub.w	r3, r5, #48
	uxtb.w	r10, r3
	mov	r0, r9
	movs	r5, #0
	movs	r6, #10
	cmp	r2, r9
	it	hi
	movhi	r0, r2
	str	r0, [sp]
	cmp	r9, r2
	bhs	.LBB18_47
.LBB18_39:
	ldrb.w	r3, [r1, r9]
	subs	r3, #48
	uxtb	r3, r3
	cmp	r3, #9
	bhi	.LBB18_46
	umull	r10, r8, r10, r6
	movs	r0, #0
	umull	r5, r4, r5, r6
	adds.w	r5, r5, r8
	mov.w	r8, #0
	adc	r0, r0, #0
	cmp	r4, #0
	it	ne
	movne	r4, #1
	orrs	r0, r4
	bne	.LBB18_49
	adds.w	r10, r10, r3
	adcs	r5, r5, #0
	adcs	r0, r8, #0
	bne	.LBB18_44
	add.w	r9, r9, #1
	cmp	r9, r2
	blo	.LBB18_39
	b	.LBB18_47
.LBB18_43:
	add.w	r9, r9, #3
	cmp	r5, #45
	bne.w	.LBB18_20
.LBB18_44:
	movs	r6, #10
	ldr	r4, [sp, #4]
	b	.LBB18_16
.LBB18_45:
	movs	r6, #11
	ldr	r4, [sp, #4]
	b	.LBB18_16
.LBB18_46:
	str.w	r9, [sp]
.LBB18_47:
	cmp	r5, #0
	it	ne
	movne.w	r10, #0
	bne	.LBB18_50
	ldrd	r9, r4, [sp]
	cmp	r9, r2
	blo.w	.LBB18_22
	b	.LBB18_36
.LBB18_49:
	ldr	r4, [sp, #4]
	b	.LBB18_16
.LBB18_50:
	movs	r6, #16
	ldr	r4, [sp, #4]
	b	.LBB18_16
.Lfunc_end18:
	.size	serde_json_core::de::from_str::hba2caa47f21d3896, .Lfunc_end18-serde_json_core::de::from_str::hba2caa47f21d3896
	.cfi_endproc
	.cantunwind
	.fnend

	.section	".text._ZN6minimq11mqtt_client42MqttClient$LT$TcpStack$C$Clock$C$_$C$_$GT$29handle_connection_acknowledge17h72dc10860a87dbe3E","ax",%progbits
	.p2align	2
	.type	minimq::mqtt_client::MqttClient<TcpStack,Clock,_,_>::handle_connection_acknowledge::h72dc10860a87dbe3,%function
	.code	16
	.thumb_func
minimq::mqtt_client::MqttClient<TcpStack,Clock,_,_>::handle_connection_acknowledge::h72dc10860a87dbe3:
.Lfunc_begin19:
	.fnstart
	.cfi_startproc
	.save	{r4, r5, r6, r7, lr}
	push	{r4, r5, r6, r7, lr}
	.cfi_def_cfa_offset 20
	.cfi_offset lr, -4
	.cfi_offset r7, -8
	.cfi_offset r6, -12
	.cfi_offset r5, -16
	.cfi_offset r4, -20
	.setfp	r7, sp, #12
	add	r7, sp, #12
	.cfi_def_cfa r7, 8
	.save	{r8, r9, r10, r11}
	push.w	{r8, r9, r10, r11}
	.cfi_offset r11, -24
	.cfi_offset r10, -28
	.cfi_offset r9, -32
	.cfi_offset r8, -36
	.pad	#476
	sub	sp, #476
	mov	r8, r0
	ldrb.w	r0, [r0, #1776]
	cmp	r0, #3
	bne	.LBB19_3
	ldrb.w	r2, [r1, #165]
	cbz	r2, .LBB19_5
	mov.w	r11, #5
	b	.LBB19_4
.LBB19_3:
	mov.w	r11, #6
	movs	r2, #2
.LBB19_4:
	mov	r0, r11
	mov	r1, r2
	add	sp, #476
	pop.w	{r8, r9, r10, r11}
	pop	{r4, r5, r6, r7, pc}
.LBB19_5:
	ldrb.w	r0, [r1, #164]
	cbz	r0, .LBB19_7
	mov.w	r11, #9
	b	.LBB19_9
.LBB19_7:
	ldrb.w	r0, [r8, #1255]
	mov.w	r11, #7
	movs	r2, #1
	movw	r3, #59000
	cmp	r0, #0
	mov.w	r0, #0
	it	eq
	moveq.w	r11, #9
	strh.w	r2, [r8, #1236]
	str.w	r2, [r8, #536]
	ldr.w	r2, [r8, #636]
	strb.w	r0, [r8, #1255]
	cmp	r2, #0
	str.w	r3, [r8, #540]
	str.w	r0, [r8, #560]
	it	ne
	strne.w	r0, [r8, #636]
	ldr.w	r0, [r8, #1224]
	cmp	r0, #0
	itt	ne
	movne	r0, #0
	strne.w	r0, [r8, #1224]
	ldr.w	r0, [r8, #1228]
	cbz	r0, .LBB19_9
	movs	r0, #0
	str.w	r0, [r8, #1228]
.LBB19_9:
	add	r6, sp, #32
	movs	r2, #164
	mov	r0, r6
	movs	r5, #0
	strb.w	r5, [r8, #1776]
	bl	__aeabi_memcpy4
	ldr	r3, [sp, #192]
	str	r5, [sp, #196]
	cmp	r3, #0
	beq.w	.LBB19_40
	sub.w	r0, r7, #233
	add.w	r1, sp, #202
	adds	r0, #1
	str	r0, [sp, #24]
	adds	r0, r1, #1
	mov.w	r10, #0
	add	r5, sp, #408
	str.w	r11, [sp, #8]
	str	r0, [sp, #20]
	add.w	r0, r8, #568
	str	r0, [sp, #16]
	str	r3, [sp, #28]
	b	.LBB19_12
.LBB19_11:
	cmp	r10, r3
	beq.w	.LBB19_38
.LBB19_12:
	add.w	r0, r10, r10, lsl #2
	mov	r9, r10
	add.w	r10, r10, #1
	add.w	r2, r6, r0, lsl #2
	ldrb.w	r1, [r6, r0, lsl #2]
	ldrh	r0, [r2, #2]
	subs	r1, #7
	ldr.w	r11, [r2, #4]
	ldr	r4, [r2, #8]
	cmp	r1, #20
	str.w	r10, [sp, #196]
	bhi	.LBB19_11
.LCPI19_0:
	tbh	[pc, r1, lsl #1]
.LJTI19_0:
	.short	(.LBB19_17-(.LCPI19_0+4))/2
	.short	(.LBB19_21-(.LCPI19_0+4))/2
	.short	(.LBB19_16-(.LCPI19_0+4))/2
	.short	(.LBB19_16-(.LCPI19_0+4))/2
	.short	(.LBB19_16-(.LCPI19_0+4))/2
	.short	(.LBB19_16-(.LCPI19_0+4))/2
	.short	(.LBB19_16-(.LCPI19_0+4))/2
	.short	(.LBB19_16-(.LCPI19_0+4))/2
	.short	(.LBB19_16-(.LCPI19_0+4))/2
	.short	(.LBB19_16-(.LCPI19_0+4))/2
	.short	(.LBB19_16-(.LCPI19_0+4))/2
	.short	(.LBB19_16-(.LCPI19_0+4))/2
	.short	(.LBB19_16-(.LCPI19_0+4))/2
	.short	(.LBB19_16-(.LCPI19_0+4))/2
	.short	(.LBB19_16-(.LCPI19_0+4))/2
	.short	(.LBB19_16-(.LCPI19_0+4))/2
	.short	(.LBB19_15-(.LCPI19_0+4))/2
	.short	(.LBB19_16-(.LCPI19_0+4))/2
	.short	(.LBB19_16-(.LCPI19_0+4))/2
	.short	(.LBB19_16-(.LCPI19_0+4))/2
	.short	(.LBB19_39-(.LCPI19_0+4))/2
	.p2align	1
.LBB19_15:
	movs	r0, #1
	strd	r0, r11, [r8, #560]
	b	.LBB19_11
.LBB19_16:
	b	.LBB19_11
.LBB19_17:
	movs	r1, #68
	mov	r0, r5
	bl	__aeabi_memclr4
	cmp	r4, #64
	bhi.w	.LBB19_67
	cmp	r4, #0
	beq.w	.LBB19_37
	subs	r0, r4, #1
	cmp	r0, #3
	bhs	.LBB19_22
	movs	r2, #0
	b	.LBB19_33
.LBB19_21:
	mov.w	r1, #1000
	muls	r0, r1, r0
	movs	r1, #1
	strd	r1, r0, [r8, #536]
	b	.LBB19_11
.LBB19_22:
	subs	r0, r4, #4
	movs	r1, #1
	cmp	r0, #12
	str	r4, [sp, #12]
	add.w	r12, r1, r0, lsr #2
	bhs	.LBB19_24
	movs	r2, #0
	ands	r1, r12, #3
	bne	.LBB19_27
	b	.LBB19_33
.LBB19_24:
	bic	r1, r12, #3
	movs	r2, #0
.LBB19_25:
	adds	r3, r5, #4
	ldrb	r0, [r11], #16
	ldrb	r4, [r11, #-15]
	subs	r1, #4
	ldrb	r6, [r11, #-14]
	ldrb	r5, [r11, #-13]
	strb	r0, [r3, r2]
	ldr	r0, [sp, #408]
	add.w	r0, r0, #1
	str	r0, [sp, #408]
	strb	r4, [r3, r0]
	ldr	r0, [sp, #408]
	add.w	r0, r0, #1
	str	r0, [sp, #408]
	strb	r6, [r3, r0]
	ldr	r0, [sp, #408]
	add.w	r0, r0, #1
	str	r0, [sp, #408]
	strb	r5, [r3, r0]
	add	r5, sp, #408
	ldr	r0, [sp, #408]
	add.w	r0, r0, #1
	str	r0, [sp, #408]
	ldrb	r2, [r11, #-12]
	strb	r2, [r3, r0]
	ldr	r0, [sp, #408]
	add.w	r0, r0, #1
	str	r0, [sp, #408]
	ldrb	r2, [r11, #-11]
	strb	r2, [r3, r0]
	ldr	r0, [sp, #408]
	add.w	r0, r0, #1
	str	r0, [sp, #408]
	ldrb	r2, [r11, #-10]
	strb	r2, [r3, r0]
	ldr	r0, [sp, #408]
	add.w	r0, r0, #1
	str	r0, [sp, #408]
	ldrb	r2, [r11, #-9]
	strb	r2, [r3, r0]
	ldr	r0, [sp, #408]
	add.w	r0, r0, #1
	str	r0, [sp, #408]
	ldrb	r2, [r11, #-8]
	strb	r2, [r3, r0]
	ldr	r0, [sp, #408]
	add.w	r0, r0, #1
	str	r0, [sp, #408]
	ldrb	r2, [r11, #-7]
	strb	r2, [r3, r0]
	ldr	r0, [sp, #408]
	add.w	r0, r0, #1
	str	r0, [sp, #408]
	ldrb	r2, [r11, #-6]
	strb	r2, [r3, r0]
	ldr	r0, [sp, #408]
	add.w	r0, r0, #1
	str	r0, [sp, #408]
	ldrb	r2, [r11, #-5]
	strb	r2, [r3, r0]
	ldr	r0, [sp, #408]
	add.w	r0, r0, #1
	str	r0, [sp, #408]
	ldrb	r2, [r11, #-4]
	strb	r2, [r3, r0]
	ldr	r0, [sp, #408]
	add.w	r0, r0, #1
	str	r0, [sp, #408]
	ldrb	r2, [r11, #-3]
	strb	r2, [r3, r0]
	ldr	r0, [sp, #408]
	add.w	r0, r0, #1
	str	r0, [sp, #408]
	ldrb	r2, [r11, #-2]
	strb	r2, [r3, r0]
	ldr	r0, [sp, #408]
	add.w	r0, r0, #1
	str	r0, [sp, #408]
	ldrb	r2, [r11, #-1]
	strb	r2, [r3, r0]
	ldr	r0, [sp, #408]
	add.w	r2, r0, #1
	str	r2, [sp, #408]
	bne	.LBB19_25
	add	r6, sp, #32
	ldr	r4, [sp, #12]
	ands	r1, r12, #3
	beq	.LBB19_33
.LBB19_27:
	adds	r0, r5, #4
	ldrb.w	r3, [r11]
	mov	lr, r6
	ldrb.w	r6, [r11, #1]
	ldrb.w	r5, [r11, #2]
	cmp	r1, #1
	ldrb.w	r4, [r11, #3]
	strb	r3, [r0, r2]
	ldr	r2, [sp, #408]
	add.w	r2, r2, #1
	str	r2, [sp, #408]
	strb	r6, [r0, r2]
	ldr	r2, [sp, #408]
	add.w	r2, r2, #1
	str	r2, [sp, #408]
	strb	r5, [r0, r2]
	ldr	r2, [sp, #408]
	add.w	r2, r2, #1
	str	r2, [sp, #408]
	strb	r4, [r0, r2]
	ldr	r2, [sp, #408]
	add.w	r2, r2, #1
	str	r2, [sp, #408]
	bne	.LBB19_29
	add.w	r11, r11, #4
	b	.LBB19_32
.LBB19_29:
	ldrb.w	r3, [r11, #4]
	cmp	r1, #2
	ldrb.w	r6, [r11, #5]
	ldrb.w	r5, [r11, #6]
	ldrb.w	r4, [r11, #7]
	strb	r3, [r0, r2]
	ldr	r2, [sp, #408]
	add.w	r2, r2, #1
	str	r2, [sp, #408]
	strb	r6, [r0, r2]
	ldr	r2, [sp, #408]
	add.w	r2, r2, #1
	str	r2, [sp, #408]
	strb	r5, [r0, r2]
	ldr	r2, [sp, #408]
	add.w	r2, r2, #1
	str	r2, [sp, #408]
	strb	r4, [r0, r2]
	ldr	r2, [sp, #408]
	add.w	r2, r2, #1
	str	r2, [sp, #408]
	bne	.LBB19_31
	add.w	r11, r11, #8
	b	.LBB19_32
.LBB19_31:
	ldrb.w	r1, [r11, #8]
	ldrb.w	r3, [r11, #9]
	ldrb.w	r6, [r11, #10]
	ldrb.w	r5, [r11, #11]
	strb	r1, [r0, r2]
	ldr	r1, [sp, #408]
	add.w	r11, r11, #12
	adds	r1, #1
	str	r1, [sp, #408]
	strb	r3, [r0, r1]
	ldr	r1, [sp, #408]
	adds	r1, #1
	str	r1, [sp, #408]
	strb	r6, [r0, r1]
	ldr	r1, [sp, #408]
	adds	r1, #1
	str	r1, [sp, #408]
	strb	r5, [r0, r1]
	ldr	r0, [sp, #408]
	adds	r2, r0, #1
	str	r2, [sp, #408]
.LBB19_32:
	mov	r6, lr
	add	r5, sp, #408
	ldr	r4, [sp, #12]
.LBB19_33:
	ands	r0, r4, #3
	beq	.LBB19_37
	adds	r1, r5, r2
	ldrb.w	r2, [r11]
	cmp	r0, #1
	strb	r2, [r1, #4]
	ldr	r1, [sp, #408]
	add.w	r1, r1, #1
	str	r1, [sp, #408]
	beq	.LBB19_37
	add	r1, r5
	ldrb.w	r2, [r11, #1]
	cmp	r0, #2
	strb	r2, [r1, #4]
	ldr	r1, [sp, #408]
	add.w	r0, r1, #1
	str	r0, [sp, #408]
	beq	.LBB19_37
	add	r0, r5
	ldrb.w	r1, [r11, #2]
	strb	r1, [r0, #4]
	ldr	r0, [sp, #408]
	adds	r0, #1
	str	r0, [sp, #408]
.LBB19_37:
	add.w	r11, sp, #340
	movs	r2, #68
	mov	r0, r11
	mov	r1, r5
	bl	__aeabi_memcpy4
	ldr	r4, [sp, #24]
	movs	r2, #68
	mov	r0, r4
	mov	r1, r11
	bl	__aeabi_memcpy
	ldr	r5, [sp, #20]
	movs	r2, #68
	mov	r0, r5
	mov	r1, r4
	bl	__aeabi_memcpy
	movs	r2, #68
	ldr	r0, [sp, #16]
	mov	r1, r5
	add	r5, sp, #408
	bl	__aeabi_memcpy
	ldr	r3, [sp, #28]
	b	.LBB19_11
.LBB19_38:
	mov	r10, r3
.LBB19_39:
	cmp	r9, r3
	ldr.w	r11, [sp, #8]
	mov.w	r5, #0
	bhs.w	.LBB19_70
.LBB19_40:
	ldr.w	r0, [r8, #532]
	blx	r0
	ldr.w	r2, [r8, #536]
	movs	r1, #1
	cmp	r2, #1
	strb.w	r1, [r8, #1255]
	str.w	r5, [r8, #544]
	bne	.LBB19_46
	mov	r4, r0
	add	r0, sp, #32
	movs	r1, #1
	mov.w	r2, #1000
	movs	r3, #1
	ldr.w	r6, [r8, #540]
	mov.w	r5, #1000
	str	r5, [sp]
	bl	embedded_time::fraction::Fraction::checked_div::hd5f447229dd00813
	ldr	r0, [sp, #32]
	cmp	r0, #0
	beq.w	.LBB19_69
	lsrs	r0, r6, #1
	ldr	r1, [sp, #36]
	umull	r0, r1, r0, r1
	cmp	r1, #0
	bne	.LBB19_69
	ldr	r1, [sp, #40]
	cmp	r1, #0
	beq	.LBB19_69
	udiv	r0, r0, r1
	cmp.w	r0, #-1
	ble	.LBB19_69
	movs	r1, #1
	str.w	r1, [r8, #552]
	add	r0, r4
	str.w	r0, [r8, #556]
.LBB19_46:
	ldr.w	r0, [r8, #1228]
	add.w	r1, r8, #1232
	add.w	r9, r1, r0, lsl #1
	b	.LBB19_49
.LBB19_47:
	movs	r0, #0
	movs	r1, #0
	cmp	r0, #0
	beq	.LBB19_64
.LBB19_48:
	ldr	r2, [r1], #4
	mov	r0, r8
	bl	minimq::network_manager::InterfaceHolder<TcpStack,_>::write::h19b74f0c592580bd
	uxtb	r2, r0
	cmp	r2, #9
	mov	r2, r1
	mov	r1, r6
	bne	.LBB19_66
.LBB19_49:
	cmp	r1, r9
	beq	.LBB19_65
	ldr.w	r0, [r8, #12]
	cmp	r0, #1
	beq	.LBB19_65
	ldr.w	r0, [r8, #1224]
	adds	r6, r1, #2
	add.w	r2, r0, r0, lsl #6
	ldrh	r0, [r1]
	rsbs	r1, r2, #0
	lsls	r2, r1, #3
	movs	r1, #0
.LBB19_52:
	adds	r4, r2, r1
	beq	.LBB19_47
	add.w	r3, r8, r1
	ldrh.w	r5, [r3, #704]
	cmp	r5, r0
	beq	.LBB19_61
	cmn.w	r4, #520
	beq	.LBB19_47
	ldrh.w	r5, [r3, #1224]
	cmp	r5, r0
	beq	.LBB19_62
	cmn.w	r4, #1040
	beq	.LBB19_47
	ldrh.w	r5, [r3, #1744]
	cmp	r5, r0
	beq	.LBB19_63
	cmn.w	r4, #1560
	beq	.LBB19_47
	ldrh.w	r3, [r3, #2264]
	add.w	r1, r1, #2080
	cmp	r3, r0
	bne	.LBB19_52
	add.w	r0, r8, r1
	adds	r0, #184
	adds	r1, r0, #4
	cmp	r0, #0
	bne	.LBB19_48
	b	.LBB19_64
.LBB19_61:
	add.w	r0, r3, #704
	adds	r1, r0, #4
	cmp	r0, #0
	bne	.LBB19_48
	b	.LBB19_64
.LBB19_62:
	add.w	r0, r3, #1224
	adds	r1, r0, #4
	cmp	r0, #0
	bne	.LBB19_48
	b	.LBB19_64
.LBB19_63:
	add.w	r0, r3, #1744
	adds	r1, r0, #4
	cmp	r0, #0
	bne	.LBB19_48
.LBB19_64:
	movw	r0, :lower16:.Lanon.a766a8867b32155983aeb12c9f88ad10.275
	movw	r2, :lower16:.Lanon.0c1329e98a8e4daf707f1d3aba20b49b.113
	movt	r0, :upper16:.Lanon.a766a8867b32155983aeb12c9f88ad10.275
	movt	r2, :upper16:.Lanon.0c1329e98a8e4daf707f1d3aba20b49b.113
	movs	r1, #43
	bl	core::panicking::panic::ha0d68f1d939a874b
	.inst.n	0xdefe
.LBB19_65:
	movs	r2, #0
	b	.LBB19_4
.LBB19_66:
	mov	r11, r0
	b	.LBB19_4
.LBB19_67:
	ldr	r1, [sp, #28]
	cmp	r9, r1
	bhs	.LBB19_71
	mov.w	r11, #4
	b	.LBB19_4
.LBB19_69:
	movw	r0, :lower16:.Lanon.0c1329e98a8e4daf707f1d3aba20b49b.116
	movw	r2, :lower16:.Lanon.0c1329e98a8e4daf707f1d3aba20b49b.118
	movt	r0, :upper16:.Lanon.0c1329e98a8e4daf707f1d3aba20b49b.116
	movt	r2, :upper16:.Lanon.0c1329e98a8e4daf707f1d3aba20b49b.118
	movs	r1, #10
	bl	core::panicking::panic::ha0d68f1d939a874b
	.inst.n	0xdefe
.LBB19_70:
	movw	r2, :lower16:.Lanon.0c1329e98a8e4daf707f1d3aba20b49b.221
	mov	r0, r10
	movt	r2, :upper16:.Lanon.0c1329e98a8e4daf707f1d3aba20b49b.221
	mov	r1, r3
	bl	core::slice::index::slice_start_index_len_fail::haaeda2757c9375c3
	.inst.n	0xdefe
.LBB19_71:
	movw	r2, :lower16:.Lanon.0c1329e98a8e4daf707f1d3aba20b49b.221
	mov	r0, r10
	movt	r2, :upper16:.Lanon.0c1329e98a8e4daf707f1d3aba20b49b.221
	bl	core::slice::index::slice_start_index_len_fail::haaeda2757c9375c3
	.inst.n	0xdefe
.Lfunc_end19:
	.size	minimq::mqtt_client::MqttClient<TcpStack,Clock,_,_>::handle_connection_acknowledge::h72dc10860a87dbe3, .Lfunc_end19-minimq::mqtt_client::MqttClient<TcpStack,Clock,_,_>::handle_connection_acknowledge::h72dc10860a87dbe3
	.cfi_endproc
	.cantunwind
	.fnend

	.section	".text._ZN97_$LT$embedded_time..instant..Instant$LT$Clock$GT$$u20$as$u20$core..ops..arith..Add$LT$Dur$GT$$GT$3add17hf35db1ad5ab0791aE","ax",%progbits
	.p2align	1
	.type	<embedded_time::instant::Instant<Clock> as core::ops::arith::Add<Dur>>::add::hf35db1ad5ab0791a,%function
	.code	16
	.thumb_func
<embedded_time::instant::Instant<Clock> as core::ops::arith::Add<Dur>>::add::hf35db1ad5ab0791a:
.Lfunc_begin20:
	.fnstart
	.cfi_startproc
	.save	{r4, r5, r6, r7, lr}
	push	{r4, r5, r6, r7, lr}
	.cfi_def_cfa_offset 20
	.cfi_offset lr, -4
	.cfi_offset r7, -8
	.cfi_offset r6, -12
	.cfi_offset r5, -16
	.cfi_offset r4, -20
	.setfp	r7, sp, #12
	add	r7, sp, #12
	.cfi_def_cfa r7, 8
	.save	{r11}
	str	r11, [sp, #-4]!
	.cfi_offset r11, -24
	.pad	#16
	sub	sp, #16
	mov	r5, r1
	mov	r6, r0
	add	r0, sp, #4
	movs	r1, #1
	movs	r2, #1
	movs	r3, #1
	mov.w	r4, #1000
	str	r4, [sp]
	bl	embedded_time::fraction::Fraction::checked_div::hd5f447229dd00813
	ldr	r0, [sp, #4]
	cbz	r0, .LBB20_4
	ldr	r0, [sp, #8]
	umull	r0, r1, r5, r0
	cbnz	r1, .LBB20_4
	ldr	r1, [sp, #12]
	cbz	r1, .LBB20_4
	udiv	r0, r0, r1
	cmp	r0, #0
	itttt	pl
	addpl	r0, r6
	addpl	sp, #16
	ldrpl	r11, [sp], #4
	poppl	{r4, r5, r6, r7, pc}
.LBB20_4:
	movw	r0, :lower16:.Lanon.0c1329e98a8e4daf707f1d3aba20b49b.116
	movw	r2, :lower16:.Lanon.0c1329e98a8e4daf707f1d3aba20b49b.118
	movt	r0, :upper16:.Lanon.0c1329e98a8e4daf707f1d3aba20b49b.116
	movt	r2, :upper16:.Lanon.0c1329e98a8e4daf707f1d3aba20b49b.118
	movs	r1, #10
	bl	core::panicking::panic::ha0d68f1d939a874b
	.inst.n	0xdefe
.Lfunc_end20:
	.size	<embedded_time::instant::Instant<Clock> as core::ops::arith::Add<Dur>>::add::hf35db1ad5ab0791a, .Lfunc_end20-<embedded_time::instant::Instant<Clock> as core::ops::arith::Add<Dur>>::add::hf35db1ad5ab0791a
	.cfi_endproc
	.cantunwind
	.fnend

	.section	.text._ZN7smoltcp5iface9interface14InterfaceInner11dispatch_ip17h40aab87b8d567aeaE,"ax",%progbits
	.p2align	2
	.type	smoltcp::iface::interface::InterfaceInner::dispatch_ip::h40aab87b8d567aea,%function
	.code	16
	.thumb_func
smoltcp::iface::interface::InterfaceInner::dispatch_ip::h40aab87b8d567aea:
.Lfunc_begin21:
	.fnstart
	.cfi_startproc
	.save	{r4, r5, r6, r7, lr}
	push	{r4, r5, r6, r7, lr}
	.cfi_def_cfa_offset 20
	.cfi_offset lr, -4
	.cfi_offset r7, -8
	.cfi_offset r6, -12
	.cfi_offset r5, -16
	.cfi_offset r4, -20
	.setfp	r7, sp, #12
	add	r7, sp, #12
	.cfi_def_cfa r7, 8
	.save	{r8, r9, r10, r11}
	push.w	{r8, r9, r10, r11}
	.cfi_offset r11, -24
	.cfi_offset r10, -28
	.cfi_offset r9, -32
	.cfi_offset r8, -36
	.pad	#476
	sub	sp, #476
	add	r5, sp, #200
	mov	r10, r1
	mov	r11, r0
	mov	r0, r5
	mov	r1, r2
	mov	r4, r2
	bl	smoltcp::iface::interface::IpPacket::ip_repr::h34c58f58187ffea8
	ldrd	r2, r3, [r11, #52]
	add	r0, sp, #320
	mov	r1, r5
	bl	smoltcp::wire::ip::Repr::lower::h8146fabc9d801364
	ldrb.w	r0, [sp, #320]
	cbz	r0, .LBB21_3
	ldrb.w	r4, [sp, #321]
.LBB21_2:
	mov	r0, r4
	add	sp, #476
	pop.w	{r8, r9, r10, r11}
	pop	{r4, r5, r6, r7, pc}
.LBB21_3:
	add.w	r0, r11, #69
	str	r0, [sp, #84]
	ldrh.w	r0, [sp, #326]
	ldrb.w	r12, [sp, #346]
	strh.w	r0, [sp, #134]
	ldr	r0, [sp, #328]
	str	r0, [sp, #108]
	ldrb.w	r0, [sp, #345]
	ldrb.w	r1, [sp, #340]
	ldrb.w	r8, [sp, #347]
	str	r1, [sp, #104]
	ldrh.w	r1, [sp, #343]
	ldrb.w	r2, [sp, #324]
	add.w	r9, sp, #52
	orr.w	r6, r1, r0, lsl #16
	ldr	r0, [sp, #348]
	str	r0, [sp, #120]
	ldr	r0, [sp, #352]
	str	r0, [sp, #124]
	ldr.w	r0, [sp, #355]
	str.w	r0, [sp, #127]
	ldrb.w	r0, [sp, #363]
	strb.w	r0, [sp, #116]
	ldr.w	r0, [sp, #359]
	str	r0, [sp, #112]
	ldrb.w	r0, [sp, #364]
	ldrb.w	r3, [sp, #341]
	str	r0, [sp, #76]
	ldrb.w	r0, [sp, #365]
	str	r3, [sp, #100]
	ldrb.w	lr, [sp, #325]
	str	r0, [sp, #68]
	ldrb.w	r3, [sp, #342]
	ldrb.w	r0, [sp, #366]
	str	r2, [sp, #88]
	str	r0, [sp, #72]
	ldrb.w	r0, [sp, #367]
	ldrd	r5, r1, [sp, #332]
	str	r6, [sp, #64]
	stm.w	r9, {r4, r8, r12}
	str	r3, [sp, #80]
	strd	r0, lr, [sp, #44]
	str	r1, [sp, #96]
	cbz	r2, .LBB21_6
	cmp	r2, #1
	bne	.LBB21_12
	str	r5, [sp, #136]
	movs	r2, #1
	str.w	r1, [sp, #145]
	mov.w	r9, #1
	strb.w	r2, [sp, #144]
	b	.LBB21_7
.LBB21_6:
	ldrh.w	r0, [sp, #134]
	mov	r2, lr
	strh.w	r0, [sp, #136]
	ldr	r0, [sp, #108]
	str.w	r0, [sp, #138]
	lsrs	r0, r6, #16
	strb.w	r0, [sp, #147]
	ldr	r0, [sp, #120]
	str.w	r0, [sp, #150]
	ldr	r0, [sp, #124]
	mov	r9, r3
	strb.w	r3, [sp, #144]
	strh.w	r6, [sp, #145]
	strb.w	r12, [sp, #148]
	strb.w	r8, [sp, #149]
	str.w	r0, [sp, #154]
	ldr.w	r0, [sp, #127]
	str.w	r0, [sp, #157]
.LBB21_7:
	cmp.w	r9, #1
	ldr.w	r0, [sp, #145]
	it	eq
	addseq.w	r1, r0, #1
	beq	.LBB21_13
	add	r1, sp, #144
	str	r2, [sp, #40]
	cmp.w	r9, #0
	add.w	r1, r1, #1
	add	r2, sp, #200
	beq	.LBB21_14
	cmp.w	r9, #1
	bne	.LBB21_15
	and	r0, r0, #240
	str	r5, [sp, #92]
	cmp	r0, #224
	bne	.LBB21_17
	ldrb.w	r1, [sp, #148]
	ldrb.w	r0, [sp, #146]
	ldrb.w	r2, [sp, #147]
	and	r0, r0, #127
	orr.w	lr, r2, r1, lsl #8
	movs	r1, #1
	movt	r1, #94
	b	.LBB21_34
.LBB21_12:
	ldr	r0, [sp, #104]
	str	r1, [sp, #320]
	strb.w	r0, [sp, #324]
	ldr	r0, [sp, #100]
	strb.w	r0, [sp, #325]
	ldr.w	r2, [sp, #127]
	ldr.w	r0, [sp, #322]
	str	r0, [sp, #24]
	orr.w	r0, r3, r6, lsl #8
	str	r0, [sp, #28]
	add	r0, sp, #144
	str.w	r2, [sp, #327]
	ldr	r2, [sp, #124]
	strh.w	r1, [sp, #140]
	ldr	r1, [sp, #120]
	adds	r0, #1
	strd	r1, r2, [sp, #320]
	ldr	r2, [sp, #112]
	str.w	r2, [sp, #331]
	ldrb.w	r2, [sp, #116]
	str	r0, [sp, #36]
	ldr	r0, [sp, #324]
	strb.w	r2, [sp, #335]
	str.w	r0, [sp, #149]
	ldr	r0, [sp, #328]
	str.w	r0, [sp, #153]
	ldr	r0, [sp, #332]
	str.w	r1, [sp, #145]
	movs	r1, #2
	str.w	r0, [sp, #157]
	movs	r0, #2
	str	r0, [sp, #40]
	ldrb.w	r0, [sp, #145]
	str	r5, [sp, #136]
	add	r2, sp, #200
	strb.w	r1, [sp, #144]
	mov.w	r9, #2
	strd	r12, r8, [sp, #16]
	cmp	r0, #255
	str	r5, [sp, #92]
	beq	.LBB21_16
	b	.LBB21_19
.LBB21_13:
	str	r5, [sp, #92]
	movw	lr, #65535
	mov.w	r8, #-1
	b	.LBB21_35
.LBB21_14:
	ldr	r0, [sp, #100]
	str	r0, [sp, #20]
	ldr	r0, [sp, #104]
	str	r1, [sp, #36]
	str	r0, [sp, #16]
	ldr	r0, [sp, #96]
	str	r0, [sp, #28]
	str	r5, [sp, #92]
	b	.LBB21_18
.LBB21_15:
	str	r1, [sp, #36]
	ldr	r1, [sp, #100]
	uxtb	r0, r0
	str	r1, [sp, #20]
	ldr	r1, [sp, #104]
	str	r1, [sp, #16]
	ldr	r1, [sp, #96]
	strd	r5, r1, [sp, #24]
	cmp	r0, #255
	str	r5, [sp, #92]
	bne	.LBB21_19
.LBB21_16:
	ldrb.w	r0, [sp, #157]
	ldrb.w	r2, [sp, #160]
	ldrb.w	r1, [sp, #158]
	ldrb.w	r3, [sp, #159]
	lsls	r1, r1, #24
	orr.w	r0, r1, r0, lsl #16
	movw	r1, #13107
	orr.w	lr, r3, r2, lsl #8
	orr.w	r8, r0, r1
	b	.LBB21_35
.LBB21_17:
	ldr	r0, [sp, #100]
	add	r2, sp, #200
	str	r0, [sp, #20]
	ldr	r0, [sp, #104]
	str	r1, [sp, #36]
	str	r0, [sp, #16]
	ldr	r0, [sp, #96]
	str	r0, [sp, #28]
.LBB21_18:
	str	r5, [sp, #24]
.LBB21_19:
	ldr.w	r1, [r11, #56]
	add.w	r0, r11, #68
	str.w	r10, [sp, #32]
	add	r4, sp, #144
	add.w	r1, r1, r1, lsl #3
	str	r0, [sp, #12]
	ldrd	r6, r5, [r11]
	ldr.w	r0, [r11, #52]
	lsl.w	r10, r1, #1
	str	r2, [sp, #8]
.LBB21_20:
	cmp.w	r10, #0
	beq	.LBB21_23
	mov	r1, r4
	add.w	r8, r0, #18
	bl	smoltcp::wire::ip::Cidr::contains_addr::h768e43cd1d234828
	cmp	r0, #0
	sub.w	r10, r10, #18
	mov	r0, r8
	beq	.LBB21_20
	ldr	r1, [sp, #36]
	ldr	r0, [r1, #12]
	str	r0, [sp, #212]
	ldr	r0, [r1, #8]
	str	r0, [sp, #208]
	ldr	r0, [r1, #4]
	str	r0, [sp, #204]
	ldr	r0, [r1]
	b	.LBB21_25
.LBB21_23:
	add.w	r1, r11, #60
	add	r0, sp, #320
	add	r2, sp, #144
	str	r6, [sp]
	str	r5, [sp, #4]
	bl	smoltcp::iface::route::Routes::lookup::h2f9b0a604461411e
	ldrb.w	r9, [sp, #320]
	cmp.w	r9, #3
	beq.w	.LBB21_71
	ldr.w	r0, [sp, #333]
	str	r0, [sp, #212]
	ldr.w	r0, [sp, #329]
	str	r0, [sp, #208]
	ldr.w	r0, [sp, #325]
	str	r0, [sp, #204]
	ldr.w	r0, [sp, #321]
.LBB21_25:
	str	r0, [sp, #200]
	ldr.w	r10, [sp, #32]
	ldrd	r0, r1, [sp, #200]
	str.w	r1, [sp, #169]
	ldr.w	r1, [r11, #16]
	ldr	r2, [sp, #212]
	cmp	r1, #0
	str.w	r2, [sp, #177]
	ldr	r2, [sp, #208]
	str.w	r2, [sp, #173]
	str.w	r0, [sp, #165]
	strb.w	r9, [sp, #164]
	beq.w	.LBB21_110
	add	r5, sp, #164
	add.w	r0, r11, #8
	ldrd	r2, r3, [r11]
	mov	r1, r5
	bl	smoltcp::iface::neighbor::Cache::lookup::hb727a98f0eba979d
	mov	r4, r0
	uxtb	r0, r0
	cmp	r0, #0
	beq	.LBB21_33
	cmp	r0, #2
	ldr	r0, [sp, #40]
	beq.w	.LBB21_2
	cmp	r0, r9
	bne.w	.LBB21_69
	cmp	r0, #1
	ldr.w	r1, [sp, #165]
	beq.w	.LBB21_66
	cmp	r0, #2
	bne.w	.LBB21_69
	adds	r2, r5, #5
	ldr	r3, [sp, #12]
	str	r1, [sp, #184]
	ldr	r0, [r2]
	str	r0, [sp, #188]
	ldr	r1, [r2, #4]
	ldr	r0, [r3]
	str	r1, [sp, #192]
	lsls	r1, r0, #31
	ldr	r1, [r2, #8]
	str	r1, [sp, #196]
	beq.w	.LBB21_125
	ldrb	r1, [r3, #6]
	movs	r4, #1
	ldrh	r2, [r3, #4]
	strb.w	r4, [sp, #225]
	orr.w	r1, r2, r1, lsl #16
	ldr	r2, [sp, #196]
	str.w	r2, [sp, #221]
	ldr	r2, [sp, #192]
	str.w	r2, [sp, #217]
	ldr	r2, [sp, #188]
	str.w	r2, [sp, #213]
	ldr	r2, [sp, #184]
	str.w	r2, [sp, #209]
	movs	r2, #2
	strb.w	r2, [sp, #208]
	movs	r2, #6
	bfi	r0, r2, #0, #8
	str.w	r0, [sp, #226]
	lsrs	r0, r1, #16
	strh.w	r1, [sp, #230]
	strb.w	r0, [sp, #232]
	add	r0, sp, #304
	add	r1, sp, #184
	strb.w	r2, [sp, #200]
	bl	smoltcp::wire::ipv6::Address::solicited_node::haf06f2ed20c3c012
	ldr	r0, [sp, #8]
	bl	smoltcp::wire::icmpv6::Repr::buffer_len::h7ea189855c9c3b5a
	str	r0, [sp, #328]
	ldr	r0, [sp, #136]
	str	r0, [sp, #332]
	ldrh.w	r0, [sp, #140]
	strh.w	r0, [sp, #336]
	ldr	r0, [sp, #24]
	str.w	r0, [sp, #338]
	ldr	r0, [sp, #28]
	str.w	r0, [sp, #342]
	ldr	r0, [sp, #16]
	strb.w	r0, [sp, #346]
	ldr	r0, [sp, #20]
	strb.w	r0, [sp, #347]
	movs	r2, #104
	ldrd	r0, r1, [sp, #304]
	str	r0, [sp, #348]
	ldr	r0, [sp, #312]
	str	r1, [sp, #352]
	ldr	r1, [sp, #316]
	strd	r0, r1, [sp, #356]
	movs	r0, #7
	str	r4, [sp, #320]
	strb.w	r0, [sp, #364]
	movs	r0, #255
	add	r4, sp, #320
	strb.w	r0, [sp, #366]
	add.w	r0, r4, #48
	add	r1, sp, #200
	bl	__aeabi_memcpy8
	mov	r0, r11
	mov	r1, r10
	mov	r2, r4
	bl	smoltcp::iface::interface::InterfaceInner::dispatch_ip::h40aab87b8d567aea
	uxtb	r4, r0
	cmp	r4, #11
	bne.w	.LBB21_2
	b	.LBB21_69
.LBB21_33:
	bic	r0, r1, #-16777216
	lsrs	r1, r4, #8
	lsr.w	lr, r0, #8
.LBB21_34:
	orr.w	r8, r1, r0, lsl #24
.LBB21_35:
	ldrd	r1, r0, [r11, #32]
	cmp	r0, #0
	ldr.w	r2, [r11, #40]
	it	ne
	movne	r0, #1
	ldrb.w	r3, [r11, #45]
	str	r1, [sp, #200]
	ldrb.w	r12, [r11, #44]
	ldr.w	r9, [sp, #88]
	ldrb.w	r5, [r11, #46]
	ldrb.w	r6, [r11, #48]
	ldrb.w	r4, [r11, #47]
	orr.w	r1, r12, r3, lsl #8
	str	r0, [sp, #204]
	cmp.w	r9, #1
	orr.w	r0, r1, r5, lsl #16
	str	r2, [sp, #208]
	strb.w	r6, [sp, #216]
	orr.w	r0, r0, r4, lsl #24
	str	r0, [sp, #212]
	beq	.LBB21_38
	cmp.w	r9, #2
	bne.w	.LBB21_111
	movs	r0, #40
	b	.LBB21_39
.LBB21_38:
	movs	r0, #20
.LBB21_39:
	ldr	r1, [sp, #108]
	add	r0, r1
	add.w	r1, r0, #14
	cmp.w	r1, #1536
	bhi.w	.LBB21_108
	mov.w	r0, #6208
	ldr.w	r0, [r10, r0]
	cmp	r0, #4
	bhs.w	.LBB21_98
	add.w	r2, r0, r0, lsl #1
	ldrb.w	r6, [r11, #68]
	lsls	r5, r0, #4
	cmp.w	r1, #1536
	add.w	r3, r10, r2, lsl #9
	mov	r4, r1
	add.w	r0, r10, r0, lsl #4
	add.w	r2, r3, #64
	str.w	r2, [r10, r5]
	it	hs
	movhs.w	r1, #1536
	cmp	r6, #0
	str	r4, [r0, #8]
	beq	.LBB21_56
	cmp	r1, #11
	bls.w	.LBB21_109
	ldr	r4, [sp, #84]
	cmp.w	r9, #2
	strh.w	lr, [r2, #4]
	ldrh	r0, [r4, #4]
	str.w	r8, [r2]
	ldr	r4, [r4]
	strh	r0, [r2, #10]
	str.w	r4, [r2, #6]
	ldr	r0, [sp, #120]
	ldr.w	r4, [sp, #127]
	str.w	r4, [sp, #171]
	ldr	r4, [sp, #124]
	strd	r0, r4, [sp, #164]
	ldr	r0, [sp, #112]
	str.w	r0, [sp, #175]
	ldrb.w	r0, [sp, #116]
	strb.w	r0, [sp, #179]
	beq	.LBB21_57
	cmp.w	r9, #1
	ldr.w	lr, [sp, #80]
	ldr	r5, [sp, #92]
	bne.w	.LBB21_95
	cmp	r1, #13
	bls.w	.LBB21_112
	subs	r1, #14
	mov.w	r0, #8
	strh.w	r0, [r3, #76]
	beq.w	.LBB21_99
	cmp	r1, #1
	mov.w	r0, #69
	strb	r0, [r2, #14]
	beq.w	.LBB21_102
	cmp	r1, #3
	mov.w	r0, #0
	strb	r0, [r2, #15]
	bls.w	.LBB21_113
	ldr	r0, [sp, #108]
	cmp	r1, #5
	add.w	r0, r0, #20
	rev	r0, r0
	lsr.w	r0, r0, #16
	strh.w	r0, [r3, #80]
	bls.w	.LBB21_114
	cmp	r1, #7
	mov.w	r0, #0
	strh	r0, [r2, #18]
	bls.w	.LBB21_115
	cmp	r1, #8
	mov.w	r0, #64
	strh.w	r0, [r3, #84]
	beq.w	.LBB21_105
	cmp	r1, #9
	strb.w	lr, [r2, #22]
	beq.w	.LBB21_107
	ldr	r4, [sp, #104]
	mov	r0, r4
.LCPI21_0:
	tbh	[pc, r4, lsl #1]
.LJTI21_1:
	.short	(.LBB21_89-(.LCPI21_0+4))/2
	.short	(.LBB21_89-(.LCPI21_0+4))/2
	.short	(.LBB21_89-(.LCPI21_0+4))/2
	.short	(.LBB21_55-(.LCPI21_0+4))/2
	.short	(.LBB21_82-(.LCPI21_0+4))/2
	.short	(.LBB21_83-(.LCPI21_0+4))/2
	.short	(.LBB21_84-(.LCPI21_0+4))/2
	.short	(.LBB21_85-(.LCPI21_0+4))/2
	.short	(.LBB21_86-(.LCPI21_0+4))/2
	.short	(.LBB21_87-(.LCPI21_0+4))/2
	.short	(.LBB21_88-(.LCPI21_0+4))/2
	.p2align	1
.LBB21_55:
	movs	r0, #6
	b	.LBB21_89
.LBB21_56:
	movs	r4, #8
	b	.LBB21_96
.LBB21_57:
	cmp	r1, #13
	ldr.w	lr, [sp, #80]
	bls.w	.LBB21_112
	subs	r1, #14
	ldr	r5, [sp, #64]
	ldrd	r12, r8, [sp, #56]
	movw	r0, #56710
	strh.w	r0, [r3, #76]
	beq.w	.LBB21_100
	cmp	r1, #1
	mov.w	r0, #96
	strb	r0, [r2, #14]
	beq.w	.LBB21_103
	cmp	r1, #3
	bls.w	.LBB21_116
	cmp	r1, #5
	mov.w	r0, #0
	strb	r0, [r2, #17]
	strh.w	r0, [r2, #15]
	bls.w	.LBB21_118
	ldr	r0, [sp, #108]
	cmp	r1, #7
	rev	r0, r0
	lsr.w	r0, r0, #16
	strh	r0, [r2, #18]
	bls.w	.LBB21_106
	ldr	r0, [sp, #72]
	strb	r0, [r2, #21]
	ldr	r4, [sp, #76]
	mov	r0, r4
.LCPI21_1:
	tbb	[pc, r4]
.LJTI21_0:
	.byte	(.LBB21_79-(.LCPI21_1+4))/2
	.byte	(.LBB21_79-(.LCPI21_1+4))/2
	.byte	(.LBB21_79-(.LCPI21_1+4))/2
	.byte	(.LBB21_65-(.LCPI21_1+4))/2
	.byte	(.LBB21_72-(.LCPI21_1+4))/2
	.byte	(.LBB21_73-(.LCPI21_1+4))/2
	.byte	(.LBB21_74-(.LCPI21_1+4))/2
	.byte	(.LBB21_75-(.LCPI21_1+4))/2
	.byte	(.LBB21_76-(.LCPI21_1+4))/2
	.byte	(.LBB21_77-(.LCPI21_1+4))/2
	.byte	(.LBB21_78-(.LCPI21_1+4))/2
	.p2align	1
.LBB21_65:
	movs	r0, #6
	b	.LBB21_79
.LBB21_66:
	ldrb.w	r0, [r11, #68]
	cmp	r0, #0
	beq.w	.LBB21_97
	ldrh.w	r2, [r11, #73]
	mov.w	r3, #6208
	ldr	r0, [sp, #136]
	strh.w	r2, [sp, #328]
	ldr.w	r2, [r11, #69]
	str	r2, [sp, #324]
	movs	r2, #0
	str.w	r0, [sp, #330]
	ldr.w	r0, [r10, r3]
	strh.w	r2, [sp, #320]
	mov.w	r2, #-1
	cmp	r0, #4
	str.w	r2, [sp, #334]
	strh.w	r2, [sp, #338]
	str	r1, [sp, #340]
	bhs.w	.LBB21_98
	add.w	r1, r0, r0, lsl #1
	lsls	r3, r0, #4
	add.w	r1, r10, r1, lsl #9
	add.w	r0, r10, r0, lsl #4
	add.w	r5, r1, #64
	str.w	r5, [r10, r3]
	movs	r3, #42
	str	r3, [r0, #8]
	ldr	r3, [sp, #84]
	str	r2, [r1, #64]
	ldrh	r0, [r3, #4]
	strh.w	r0, [r1, #74]
	ldr	r0, [r3]
	str.w	r0, [r1, #70]
	movw	r0, #65535
	strh.w	r0, [r1, #68]
	mov.w	r0, #1544
	strh.w	r0, [r1, #76]
	add.w	r0, r1, #78
	str	r0, [sp, #200]
	movs	r0, #28
	str	r0, [sp, #204]
	add	r0, sp, #320
	add	r1, sp, #200
	bl	smoltcp::wire::arp::Repr::emit::h3cd44cb979bfba56
	mov	r0, r10
	bl	stm32h7xx_hal::ethernet::eth::TDesRing<_>::release::h7bafb1196b8ee228
.LBB21_69:
	ldr.w	r0, [r11, #16]
	cmp	r0, #0
	beq.w	.LBB21_124
	movw	r2, #16960
	ldrd	r0, r1, [r11]
	movt	r2, #15
	adds	r0, r0, r2
	adc	r1, r1, #0
	strd	r0, r1, [r11, #8]
.LBB21_71:
	movs	r4, #2
	mov	r0, r4
	add	sp, #476
	pop.w	{r8, r9, r10, r11}
	pop	{r4, r5, r6, r7, pc}
.LBB21_72:
	movs	r0, #17
	b	.LBB21_79
.LBB21_73:
	movs	r0, #43
	b	.LBB21_79
.LBB21_74:
	movs	r0, #44
	b	.LBB21_79
.LBB21_75:
	movs	r0, #58
	b	.LBB21_79
.LBB21_76:
	movs	r0, #59
	b	.LBB21_79
.LBB21_77:
	movs	r0, #60
	b	.LBB21_79
.LBB21_78:
	ldr	r0, [sp, #68]
.LBB21_79:
	cmp	r1, #23
	strb.w	r0, [r3, #84]
	bls.w	.LBB21_120
	ldr	r0, [sp, #92]
	str.w	r0, [r2, #22]
	ldr	r0, [sp, #96]
	str.w	r0, [r2, #26]
	ldr	r0, [sp, #104]
	strb	r0, [r2, #30]
	ldr	r0, [sp, #100]
	strb	r0, [r2, #31]
	lsrs	r0, r5, #16
	strb.w	r0, [r2, #35]
	cmp	r1, #39
	ldr	r0, [sp, #52]
	strb.w	lr, [r3, #96]
	strh.w	r5, [r2, #33]
	strb.w	r8, [r3, #100]
	strb.w	r12, [r2, #37]
	bls.w	.LBB21_121
	ldr	r6, [sp, #164]
	str.w	r6, [r2, #38]
	ldr	r3, [sp, #176]
	str.w	r3, [r2, #50]
	ldr	r3, [sp, #172]
	movs	r6, #40
	str.w	r3, [r2, #46]
	ldr	r3, [sp, #168]
	str.w	r3, [r2, #42]
	b	.LBB21_94
.LBB21_82:
	movs	r0, #17
	b	.LBB21_89
.LBB21_83:
	movs	r0, #43
	b	.LBB21_89
.LBB21_84:
	movs	r0, #44
	b	.LBB21_89
.LBB21_85:
	movs	r0, #58
	b	.LBB21_89
.LBB21_86:
	movs	r0, #59
	b	.LBB21_89
.LBB21_87:
	movs	r0, #60
	b	.LBB21_89
.LBB21_88:
	ldr	r0, [sp, #100]
.LBB21_89:
	cmp	r1, #15
	strb	r0, [r2, #23]
	bls.w	.LBB21_122
	cmp	r1, #19
	str.w	r5, [r2, #26]
	bls.w	.LBB21_123
	mov	r0, r3
	movs	r6, #0
	strh	r6, [r0, #88]!
	lsls.w	r6, r12, #31
	ldr	r6, [sp, #96]
	str.w	r6, [r2, #30]
	bne	.LBB21_93
	ldrh	r6, [r2, #14]
	ldrh.w	r5, [r3, #80]
	ldrh.w	r4, [r3, #82]
	rev	r6, r6
	lsrs	r6, r6, #16
	rev	r5, r5
	add.w	r6, r6, r5, lsr #16
	ldrh.w	r5, [r3, #84]
	rev	r4, r4
	add.w	r6, r6, r4, lsr #16
	ldrh.w	r4, [r3, #86]
	rev	r5, r5
	add.w	r6, r6, r5, lsr #16
	ldrh.w	r5, [r3, #88]
	rev	r4, r4
	add.w	r6, r6, r4, lsr #16
	ldrh.w	r4, [r3, #90]
	rev	r5, r5
	add.w	r6, r6, r5, lsr #16
	ldrh.w	r5, [r3, #92]
	rev	r4, r4
	add.w	r6, r6, r4, lsr #16
	ldrh.w	r4, [r3, #94]
	ldrh.w	r3, [r3, #96]
	rev	r5, r5
	add.w	r6, r6, r5, lsr #16
	rev	r5, r4
	add.w	r6, r6, r5, lsr #16
	rev	r3, r3
	add.w	r3, r6, r3, lsr #16
	lsrs	r6, r3, #16
	uxtah	r3, r6, r3
	add.w	r3, r3, r3, lsr #16
	mvns	r3, r3
	rev	r3, r3
	lsrs	r3, r3, #16
	strh	r3, [r0]
.LBB21_93:
	movs	r6, #20
	ldrd	r8, r5, [sp, #60]
	ldrd	r0, r12, [sp, #52]
.LBB21_94:
	ldr	r3, [sp, #48]
	strb.w	r3, [sp, #321]
	ldrh.w	r3, [sp, #134]
	add	r2, r6
	strh.w	r3, [sp, #322]
	ldr	r3, [sp, #108]
	str	r3, [sp, #324]
	ldr	r3, [sp, #96]
	str	r3, [sp, #332]
	ldr	r3, [sp, #104]
	strb.w	r3, [sp, #336]
	ldr	r3, [sp, #100]
	strb.w	r3, [sp, #337]
	lsrs	r3, r5, #16
	strb.w	r3, [sp, #341]
	ldr	r3, [sp, #92]
	str	r3, [sp, #328]
	ldr	r3, [sp, #164]
	str	r3, [sp, #344]
	ldr	r3, [sp, #168]
	str	r3, [sp, #348]
	ldr	r3, [sp, #172]
	str	r3, [sp, #352]
	ldr	r3, [sp, #176]
	str	r3, [sp, #356]
	ldr	r3, [sp, #76]
	strb.w	r3, [sp, #360]
	ldr	r3, [sp, #68]
	strb.w	r3, [sp, #361]
	subs	r3, r1, r6
	ldr	r1, [sp, #72]
	strb.w	r1, [sp, #362]
	ldr	r1, [sp, #44]
	strb.w	r1, [sp, #363]
	adds	r2, #14
	add	r1, sp, #320
	strb.w	r9, [sp, #320]
	add	r6, sp, #200
	strb.w	lr, [sp, #338]
	strh.w	r5, [sp, #339]
	strb.w	r8, [sp, #342]
	strb.w	r12, [sp, #343]
	str	r6, [sp]
	bl	smoltcp::iface::interface::IpPacket::emit_payload::hc58717c03a59069e
.LBB21_95:
	movs	r4, #11
.LBB21_96:
	mov	r0, r10
	bl	stm32h7xx_hal::ethernet::eth::TDesRing<_>::release::h7bafb1196b8ee228
	mov	r0, r4
	add	sp, #476
	pop.w	{r8, r9, r10, r11}
	pop	{r4, r5, r6, r7, pc}
.LBB21_97:
	movs	r4, #8
	mov	r0, r4
	add	sp, #476
	pop.w	{r8, r9, r10, r11}
	pop	{r4, r5, r6, r7, pc}
.LBB21_98:
	movw	r2, :lower16:.Lanon.0c1329e98a8e4daf707f1d3aba20b49b.235
	movs	r1, #4
	movt	r2, :upper16:.Lanon.0c1329e98a8e4daf707f1d3aba20b49b.235
	bl	core::panicking::panic_bounds_check::h693951cbac28abbe
	.inst.n	0xdefe
.LBB21_99:
	movw	r2, :lower16:.Lanon.dc80c87ea47a70125c3d5d93959ab909.421
	movt	r2, :upper16:.Lanon.dc80c87ea47a70125c3d5d93959ab909.421
	b	.LBB21_101
.LBB21_100:
	movw	r2, :lower16:.Lanon.dc80c87ea47a70125c3d5d93959ab909.449
	movt	r2, :upper16:.Lanon.dc80c87ea47a70125c3d5d93959ab909.449
.LBB21_101:
	movs	r0, #0
	movs	r1, #0
	bl	core::panicking::panic_bounds_check::h693951cbac28abbe
	.inst.n	0xdefe
.LBB21_102:
	movw	r2, :lower16:.Lanon.dc80c87ea47a70125c3d5d93959ab909.422
	movt	r2, :upper16:.Lanon.dc80c87ea47a70125c3d5d93959ab909.422
	b	.LBB21_104
.LBB21_103:
	movw	r2, :lower16:.Lanon.dc80c87ea47a70125c3d5d93959ab909.450
	movt	r2, :upper16:.Lanon.dc80c87ea47a70125c3d5d93959ab909.450
.LBB21_104:
	movs	r0, #1
	movs	r1, #1
	bl	core::panicking::panic_bounds_check::h693951cbac28abbe
	.inst.n	0xdefe
.LBB21_105:
	movw	r2, :lower16:.Lanon.dc80c87ea47a70125c3d5d93959ab909.426
	movs	r0, #8
	movt	r2, :upper16:.Lanon.dc80c87ea47a70125c3d5d93959ab909.426
	movs	r1, #8
	bl	core::panicking::panic_bounds_check::h693951cbac28abbe
	.inst.n	0xdefe
.LBB21_106:
	movw	r2, :lower16:.Lanon.dc80c87ea47a70125c3d5d93959ab909.453
	movs	r0, #7
	movt	r2, :upper16:.Lanon.dc80c87ea47a70125c3d5d93959ab909.453
	bl	core::panicking::panic_bounds_check::h693951cbac28abbe
	.inst.n	0xdefe
.LBB21_107:
	movw	r2, :lower16:.Lanon.dc80c87ea47a70125c3d5d93959ab909.427
	movs	r0, #9
	movt	r2, :upper16:.Lanon.dc80c87ea47a70125c3d5d93959ab909.427
	movs	r1, #9
	bl	core::panicking::panic_bounds_check::h693951cbac28abbe
	.inst.n	0xdefe
.LBB21_108:
	movw	r0, :lower16:.Lanon.0c1329e98a8e4daf707f1d3aba20b49b.281
	movw	r2, :lower16:.Lanon.0c1329e98a8e4daf707f1d3aba20b49b.282
	movt	r0, :upper16:.Lanon.0c1329e98a8e4daf707f1d3aba20b49b.281
	movt	r2, :upper16:.Lanon.0c1329e98a8e4daf707f1d3aba20b49b.282
	movs	r1, #37
	bl	core::panicking::panic::ha0d68f1d939a874b
	.inst.n	0xdefe
.LBB21_109:
	movw	r2, :lower16:.Lanon.0c1329e98a8e4daf707f1d3aba20b49b.318
	movs	r0, #12
	movt	r2, :upper16:.Lanon.0c1329e98a8e4daf707f1d3aba20b49b.318
	bl	core::slice::index::slice_end_index_len_fail::h5a91c503035fd6a0
	.inst.n	0xdefe
.LBB21_110:
	movw	r0, :lower16:.Lanon.a766a8867b32155983aeb12c9f88ad10.275
	movw	r2, :lower16:.Lanon.0c1329e98a8e4daf707f1d3aba20b49b.130
	movt	r0, :upper16:.Lanon.a766a8867b32155983aeb12c9f88ad10.275
	movt	r2, :upper16:.Lanon.0c1329e98a8e4daf707f1d3aba20b49b.130
	movs	r1, #43
	bl	core::panicking::panic::ha0d68f1d939a874b
	.inst.n	0xdefe
.LBB21_111:
	movw	r0, :lower16:.Lanon.dc80c87ea47a70125c3d5d93959ab909.401
	movw	r2, :lower16:.Lanon.dc80c87ea47a70125c3d5d93959ab909.402
	movt	r0, :upper16:.Lanon.dc80c87ea47a70125c3d5d93959ab909.401
	movt	r2, :upper16:.Lanon.dc80c87ea47a70125c3d5d93959ab909.402
	movs	r1, #29
	bl	core::panicking::panic::ha0d68f1d939a874b
	.inst.n	0xdefe
.LBB21_112:
	movw	r2, :lower16:.Lanon.0c1329e98a8e4daf707f1d3aba20b49b.320
	movs	r0, #14
	movt	r2, :upper16:.Lanon.0c1329e98a8e4daf707f1d3aba20b49b.320
	bl	core::slice::index::slice_end_index_len_fail::h5a91c503035fd6a0
	.inst.n	0xdefe
.LBB21_113:
	movw	r2, :lower16:.Lanon.dc80c87ea47a70125c3d5d93959ab909.423
	movt	r2, :upper16:.Lanon.dc80c87ea47a70125c3d5d93959ab909.423
	b	.LBB21_117
.LBB21_114:
	movw	r2, :lower16:.Lanon.dc80c87ea47a70125c3d5d93959ab909.424
	movt	r2, :upper16:.Lanon.dc80c87ea47a70125c3d5d93959ab909.424
	b	.LBB21_119
.LBB21_115:
	movw	r2, :lower16:.Lanon.dc80c87ea47a70125c3d5d93959ab909.425
	movs	r0, #8
	movt	r2, :upper16:.Lanon.dc80c87ea47a70125c3d5d93959ab909.425
	bl	core::slice::index::slice_end_index_len_fail::h5a91c503035fd6a0
	.inst.n	0xdefe
.LBB21_116:
	movw	r2, :lower16:.Lanon.dc80c87ea47a70125c3d5d93959ab909.451
	movt	r2, :upper16:.Lanon.dc80c87ea47a70125c3d5d93959ab909.451
.LBB21_117:
	movs	r0, #4
	bl	core::slice::index::slice_end_index_len_fail::h5a91c503035fd6a0
	.inst.n	0xdefe
.LBB21_118:
	movw	r2, :lower16:.Lanon.dc80c87ea47a70125c3d5d93959ab909.452
	movt	r2, :upper16:.Lanon.dc80c87ea47a70125c3d5d93959ab909.452
.LBB21_119:
	movs	r0, #6
	bl	core::slice::index::slice_end_index_len_fail::h5a91c503035fd6a0
	.inst.n	0xdefe
.LBB21_120:
	movw	r2, :lower16:.Lanon.dc80c87ea47a70125c3d5d93959ab909.454
	movs	r0, #24
	movt	r2, :upper16:.Lanon.dc80c87ea47a70125c3d5d93959ab909.454
	bl	core::slice::index::slice_end_index_len_fail::h5a91c503035fd6a0
	.inst.n	0xdefe
.LBB21_121:
	movw	r2, :lower16:.Lanon.dc80c87ea47a70125c3d5d93959ab909.455
	movs	r0, #40
	movt	r2, :upper16:.Lanon.dc80c87ea47a70125c3d5d93959ab909.455
	bl	core::slice::index::slice_end_index_len_fail::h5a91c503035fd6a0
	.inst.n	0xdefe
.LBB21_122:
	movw	r2, :lower16:.Lanon.dc80c87ea47a70125c3d5d93959ab909.428
	movs	r0, #16
	movt	r2, :upper16:.Lanon.dc80c87ea47a70125c3d5d93959ab909.428
	bl	core::slice::index::slice_end_index_len_fail::h5a91c503035fd6a0
	.inst.n	0xdefe
.LBB21_123:
	movw	r2, :lower16:.Lanon.dc80c87ea47a70125c3d5d93959ab909.429
	movs	r0, #20
	movt	r2, :upper16:.Lanon.dc80c87ea47a70125c3d5d93959ab909.429
	bl	core::slice::index::slice_end_index_len_fail::h5a91c503035fd6a0
	.inst.n	0xdefe
.LBB21_124:
	movw	r0, :lower16:.Lanon.a766a8867b32155983aeb12c9f88ad10.275
	movw	r2, :lower16:.Lanon.0c1329e98a8e4daf707f1d3aba20b49b.132
	movt	r0, :upper16:.Lanon.a766a8867b32155983aeb12c9f88ad10.275
	movt	r2, :upper16:.Lanon.0c1329e98a8e4daf707f1d3aba20b49b.132
	movs	r1, #43
	bl	core::panicking::panic::ha0d68f1d939a874b
	.inst.n	0xdefe
.LBB21_125:
	movw	r0, :lower16:.Lanon.a766a8867b32155983aeb12c9f88ad10.275
	movw	r2, :lower16:.Lanon.0c1329e98a8e4daf707f1d3aba20b49b.131
	movt	r0, :upper16:.Lanon.a766a8867b32155983aeb12c9f88ad10.275
	movt	r2, :upper16:.Lanon.0c1329e98a8e4daf707f1d3aba20b49b.131
	movs	r1, #43
	bl	core::panicking::panic::ha0d68f1d939a874b
	.inst.n	0xdefe
.Lfunc_end21:
	.size	smoltcp::iface::interface::InterfaceInner::dispatch_ip::h40aab87b8d567aea, .Lfunc_end21-smoltcp::iface::interface::InterfaceInner::dispatch_ip::h40aab87b8d567aea
	.cfi_endproc
	.cantunwind
	.fnend

	.section	".text._ZN6minimq15network_manager35InterfaceHolder$LT$TcpStack$C$_$GT$5write17h19b74f0c592580bdE","ax",%progbits
	.p2align	1
	.type	minimq::network_manager::InterfaceHolder<TcpStack,_>::write::h19b74f0c592580bd,%function
	.code	16
	.thumb_func
minimq::network_manager::InterfaceHolder<TcpStack,_>::write::h19b74f0c592580bd:
.Lfunc_begin22:
	.fnstart
	.cfi_startproc
	.save	{r4, r5, r6, r7, lr}
	push	{r4, r5, r6, r7, lr}
	.cfi_def_cfa_offset 20
	.cfi_offset lr, -4
	.cfi_offset r7, -8
	.cfi_offset r6, -12
	.cfi_offset r5, -16
	.cfi_offset r4, -20
	.setfp	r7, sp, #12
	add	r7, sp, #12
	.cfi_def_cfa r7, 8
	.save	{r8, r9, r10, r11}
	push.w	{r8, r9, r10, r11}
	.cfi_offset r11, -24
	.cfi_offset r10, -28
	.cfi_offset r9, -32
	.cfi_offset r8, -36
	.pad	#540
	sub.w	sp, sp, #540
	mov	r12, r0
	ldr	r0, [r0, #12]
	cmp	r0, #1
	beq.w	.LBB22_65
	ldr.w	r0, [r12]
	cmp	r0, #1
	bne	.LBB22_18
	ldr.w	lr, [r12, #8]
	mov	r8, r1
	add.w	r9, lr, #288
	ldrexb	r0, [r9]
	cbnz	r0, .LBB22_6
	dmb	sy
	movs	r1, #1
.LBB22_4:
	strexb	r3, r1, [r9]
	cbz	r3, .LBB22_7
	ldrexb	r0, [r9]
	cmp	r0, #0
	beq	.LBB22_4
.LBB22_6:
	clrex
	movs	r1, #0
.LBB22_7:
	dmb	sy
	cmp	r1, #0
	beq.w	.LBB22_68
	ldr.w	r0, [lr, #56]
	add.w	r1, r0, r0, lsl #3
	ldr.w	r0, [lr, #52]
	rsbs	r1, r1, #0
	lsls	r3, r1, #1
	movs	r1, #0
	adds	r6, r3, r1
	beq	.LBB22_17
.LBB22_9:
	ldrb	r5, [r0, r1]
	cbz	r5, .LBB22_19
	adds.w	r5, r6, #18
	beq	.LBB22_17
	adds	r5, r0, r1
	ldrb	r4, [r5, #18]
	cbz	r4, .LBB22_20
	adds.w	r4, r6, #36
	beq	.LBB22_17
	ldrb.w	r4, [r5, #36]
	cbz	r4, .LBB22_21
	adds	r6, #54
	beq	.LBB22_17
	ldrb.w	r6, [r5, #54]
	cmp	r6, #0
	beq	.LBB22_28
	adds	r1, #72
	adds	r6, r3, r1
	bne	.LBB22_9
.LBB22_17:
	movw	r0, :lower16:.Lanon.a766a8867b32155983aeb12c9f88ad10.275
	movw	r2, :lower16:.Lanon.0c1329e98a8e4daf707f1d3aba20b49b.63
	movt	r0, :upper16:.Lanon.a766a8867b32155983aeb12c9f88ad10.275
	movt	r2, :upper16:.Lanon.0c1329e98a8e4daf707f1d3aba20b49b.63
	movs	r1, #43
	bl	core::panicking::panic::ha0d68f1d939a874b
	.inst.n	0xdefe
.LBB22_18:
	mov.w	r8, #0
	movs	r0, #2
	mov	r1, r8
	add.w	sp, sp, #540
	pop.w	{r8, r9, r10, r11}
	pop	{r4, r5, r6, r7, pc}
.LBB22_19:
	add	r0, r1
	ldrb	r0, [r0, #1]
	cbnz	r0, .LBB22_22
	b	.LBB22_29
.LBB22_20:
	add.w	r0, r5, #18
	ldrb	r0, [r0, #1]
	cbnz	r0, .LBB22_22
	b	.LBB22_29
.LBB22_21:
	add.w	r0, r5, #36
	ldrb	r0, [r0, #1]
	cbz	r0, .LBB22_29
.LBB22_22:
	ldr.w	r0, [r12, #4]
	ldr.w	r1, [lr, #88]
	cmp	r1, r0
	bls.w	.LBB22_64
	mov.w	r1, #392
	ldr.w	r3, [lr, #84]
	mla	r10, r0, r1, r3
	ldr	r0, [r10, #40]!
	cmp	r0, #2
	bne.w	.LBB22_66
	ldrb.w	r0, [r10, #318]
	cmp	r0, #7
	it	ne
	cmpne	r0, #4
	bne	.LBB22_30
	ldr.w	r6, [r10, #228]
	str.w	r12, [sp, #4]
	strd	r2, r8, [sp, #16]
	mov	r8, r10
	cbz	r6, .LBB22_31
	ldr	r11, [r8, #224]!
	ldr.w	r5, [r10, #220]
	cbz	r5, .LBB22_32
.LBB22_27:
	add.w	r0, r11, r6
	udiv	r1, r0, r5
	mls	r0, r1, r5, r0
	b	.LBB22_33
.LBB22_28:
	add.w	r0, r5, #54
	ldrb	r0, [r0, #1]
	cmp	r0, #0
	bne	.LBB22_22
.LBB22_29:
	dmb	sy
	movs	r0, #0
	strb.w	r0, [r9]
	dmb	sy
	mov.w	r8, #5
	mov	r1, r8
	add.w	sp, sp, #540
	pop.w	{r8, r9, r10, r11}
	pop	{r4, r5, r6, r7, pc}
.LBB22_30:
	dmb	sy
	movs	r0, #0
	strb.w	r0, [r9]
	dmb	sy
	mov.w	r8, #3
	mov	r1, r8
	add.w	sp, sp, #540
	pop.w	{r8, r9, r10, r11}
	pop	{r4, r5, r6, r7, pc}
.LBB22_31:
	mov.w	r11, #0
	str	r11, [r8, #224]!
	strd	r11, r11, [r8, #-112]
	ldr.w	r5, [r10, #220]
	cmp	r5, #0
	bne	.LBB22_27
.LBB22_32:
	movs	r0, #0
.LBB22_33:
	subs	r4, r5, r6
	subs	r1, r5, r0
	cmp	r4, r1
	it	hi
	movhi	r4, r1
	adds	r1, r4, r0
	bhs.w	.LBB22_69
	cmp	r1, r5
	bhi	.LBB22_39
	ldr.w	r2, [r10, #216]
	ldr	r1, [sp, #16]
	cmp	r4, r1
	str	r2, [sp, #12]
	add	r0, r2
	it	hi
	movhi	r4, r1
	ldr	r1, [sp, #20]
	mov	r2, r4
	bl	__aeabi_memcpy
	adds	r2, r4, r6
	beq	.LBB22_40
	mov.w	r8, #0
	str	r2, [sp, #8]
	cbz	r5, .LBB22_41
.LBB22_37:
	add.w	r0, r11, r2
	subs	r6, r5, r2
	udiv	r1, r0, r5
	mls	r0, r1, r5, r0
	subs	r1, r5, r0
	cmp	r6, r1
	it	hi
	movhi	r6, r1
	adds	r1, r6, r0
	bhs.w	.LBB22_69
	cmp	r1, r5
	ldr.w	r11, [sp, #16]
	bls	.LBB22_42
.LBB22_39:
	movw	r2, :lower16:.Lanon.dc80c87ea47a70125c3d5d93959ab909.128
	mov	r0, r1
	movt	r2, :upper16:.Lanon.dc80c87ea47a70125c3d5d93959ab909.128
	mov	r1, r5
	bl	core::slice::index::slice_end_index_len_fail::h5a91c503035fd6a0
	.inst.n	0xdefe
.LBB22_40:
	mov.w	r11, #0
	str.w	r11, [r8]
	cmp	r5, #0
	mov.w	r8, #0
	str	r2, [sp, #8]
	bne	.LBB22_37
.LBB22_41:
	movs	r0, #0
	movs	r6, #0
	ldr.w	r11, [sp, #16]
.LBB22_42:
	sub.w	r2, r11, r4
	ldr	r1, [sp, #20]
	ldr	r3, [sp, #12]
	add	r1, r4
	cmp	r2, r6
	add	r0, r3
	it	lo
	movlo	r6, r2
	mov	r2, r6
	bl	__aeabi_memcpy
	ldr	r0, [sp, #8]
	add	r4, r6
	add	r0, r6
	str.w	r0, [r10, #228]
	dmb	sy
	strb.w	r8, [r9]
	cmp	r4, r11
	dmb	sy
	beq.w	.LBB22_63
	bhi.w	.LBB22_71
	add.w	r8, sp, #24
	mov.w	r1, #516
	mov	r0, r8
	sub.w	r5, r11, r4
	bl	__aeabi_memclr4
	cmp.w	r5, #512
	bhi.w	.LBB22_72
	cmp	r5, #0
	beq.w	.LBB22_62
	mvns	r0, r4
	and	r1, r5, #3
	add	r0, r11
	cmp	r0, #3
	ldr	r0, [sp, #20]
	add	r0, r4
	bhs	.LBB22_48
	movs	r5, #0
	b	.LBB22_58
.LBB22_48:
	subs	r2, r5, #4
	movs	r3, #1
	cmp	r2, #12
	add.w	r3, r3, r2, lsr #2
	and	r2, r3, #3
	bhs	.LBB22_50
	movs	r5, #0
	b	.LBB22_52
.LBB22_50:
	bic	r3, r3, #3
	movs	r5, #0
	add.w	r6, r8, #4
.LBB22_51:
	ldrb	r4, [r0], #16
	subs	r3, #4
	strb	r4, [r6, r5]
	ldrb	r4, [r0, #-15]
	ldr	r5, [sp, #24]
	add.w	r5, r5, #1
	str	r5, [sp, #24]
	strb	r4, [r6, r5]
	ldrb	r4, [r0, #-14]
	ldr	r5, [sp, #24]
	add.w	r5, r5, #1
	str	r5, [sp, #24]
	strb	r4, [r6, r5]
	ldrb	r4, [r0, #-13]
	ldr	r5, [sp, #24]
	add.w	r5, r5, #1
	str	r5, [sp, #24]
	strb	r4, [r6, r5]
	ldrb	r4, [r0, #-12]
	ldr	r5, [sp, #24]
	add.w	r5, r5, #1
	str	r5, [sp, #24]
	strb	r4, [r6, r5]
	ldrb	r4, [r0, #-11]
	ldr	r5, [sp, #24]
	add.w	r5, r5, #1
	str	r5, [sp, #24]
	strb	r4, [r6, r5]
	ldrb	r4, [r0, #-10]
	ldr	r5, [sp, #24]
	add.w	r5, r5, #1
	str	r5, [sp, #24]
	strb	r4, [r6, r5]
	ldrb	r4, [r0, #-9]
	ldr	r5, [sp, #24]
	add.w	r5, r5, #1
	str	r5, [sp, #24]
	strb	r4, [r6, r5]
	ldrb	r4, [r0, #-8]
	ldr	r5, [sp, #24]
	add.w	r5, r5, #1
	str	r5, [sp, #24]
	strb	r4, [r6, r5]
	ldrb	r4, [r0, #-7]
	ldr	r5, [sp, #24]
	add.w	r5, r5, #1
	str	r5, [sp, #24]
	strb	r4, [r6, r5]
	ldrb	r4, [r0, #-6]
	ldr	r5, [sp, #24]
	add.w	r5, r5, #1
	str	r5, [sp, #24]
	strb	r4, [r6, r5]
	ldrb	r4, [r0, #-5]
	ldr	r5, [sp, #24]
	add.w	r5, r5, #1
	str	r5, [sp, #24]
	strb	r4, [r6, r5]
	ldrb	r4, [r0, #-4]
	ldr	r5, [sp, #24]
	add.w	r5, r5, #1
	str	r5, [sp, #24]
	strb	r4, [r6, r5]
	ldrb	r4, [r0, #-3]
	ldr	r5, [sp, #24]
	add.w	r5, r5, #1
	str	r5, [sp, #24]
	strb	r4, [r6, r5]
	ldrb	r4, [r0, #-2]
	ldr	r5, [sp, #24]
	add.w	r5, r5, #1
	str	r5, [sp, #24]
	strb	r4, [r6, r5]
	ldrb	r4, [r0, #-1]
	ldr	r5, [sp, #24]
	add.w	r5, r5, #1
	str	r5, [sp, #24]
	strb	r4, [r6, r5]
	ldr	r5, [sp, #24]
	add.w	r5, r5, #1
	str	r5, [sp, #24]
	bne	.LBB22_51
.LBB22_52:
	cmp	r2, #0
	beq	.LBB22_58
	add.w	r3, r8, #4
	ldrb	r6, [r0]
	cmp	r2, #1
	strb	r6, [r3, r5]
	ldrb	r5, [r0, #1]
	ldr	r6, [sp, #24]
	add.w	r6, r6, #1
	str	r6, [sp, #24]
	strb	r5, [r3, r6]
	ldrb	r5, [r0, #2]
	ldr	r6, [sp, #24]
	add.w	r6, r6, #1
	str	r6, [sp, #24]
	strb	r5, [r3, r6]
	ldrb	r5, [r0, #3]
	ldr	r6, [sp, #24]
	add.w	r6, r6, #1
	str	r6, [sp, #24]
	strb	r5, [r3, r6]
	ldr	r6, [sp, #24]
	add.w	r5, r6, #1
	str	r5, [sp, #24]
	bne	.LBB22_55
	adds	r0, #4
	b	.LBB22_58
.LBB22_55:
	ldrb	r6, [r0, #4]
	cmp	r2, #2
	strb	r6, [r3, r5]
	ldrb	r5, [r0, #5]
	ldr	r6, [sp, #24]
	add.w	r6, r6, #1
	str	r6, [sp, #24]
	strb	r5, [r3, r6]
	ldrb	r5, [r0, #6]
	ldr	r6, [sp, #24]
	add.w	r6, r6, #1
	str	r6, [sp, #24]
	strb	r5, [r3, r6]
	ldrb	r5, [r0, #7]
	ldr	r6, [sp, #24]
	add.w	r6, r6, #1
	str	r6, [sp, #24]
	strb	r5, [r3, r6]
	ldr	r6, [sp, #24]
	add.w	r5, r6, #1
	str	r5, [sp, #24]
	bne	.LBB22_57
	adds	r0, #8
	b	.LBB22_58
.LBB22_57:
	ldrb	r2, [r0, #8]
	strb	r2, [r3, r5]
	ldrb	r6, [r0, #9]
	ldr	r2, [sp, #24]
	adds	r2, #1
	str	r2, [sp, #24]
	strb	r6, [r3, r2]
	ldrb	r6, [r0, #10]
	ldr	r2, [sp, #24]
	adds	r2, #1
	str	r2, [sp, #24]
	strb	r6, [r3, r2]
	ldrb	r6, [r0, #11]
	ldr	r2, [sp, #24]
	adds	r0, #12
	adds	r2, #1
	str	r2, [sp, #24]
	strb	r6, [r3, r2]
	ldr	r2, [sp, #24]
	adds	r5, r2, #1
	str	r5, [sp, #24]
.LBB22_58:
	cbz	r1, .LBB22_62
	add.w	r2, r8, r5
	ldrb	r3, [r0]
	cmp	r1, #1
	strb	r3, [r2, #4]
	ldr	r2, [sp, #24]
	add.w	r2, r2, #1
	str	r2, [sp, #24]
	beq	.LBB22_62
	add	r2, r8
	ldrb	r3, [r0, #1]
	cmp	r1, #2
	strb	r3, [r2, #4]
	ldr	r2, [sp, #24]
	add.w	r1, r2, #1
	str	r1, [sp, #24]
	beq	.LBB22_62
	add	r1, r8
	ldrb	r0, [r0, #2]
	strb	r0, [r1, #4]
	ldr	r0, [sp, #24]
	adds	r0, #1
	str	r0, [sp, #24]
.LBB22_62:
	ldr	r4, [sp, #4]
	add	r1, sp, #24
	add.w	r0, r4, #16
	mov.w	r2, #516
	bl	__aeabi_memcpy4
	mov.w	r8, #0
	movs	r0, #1
	str	r0, [r4, #12]
.LBB22_63:
	movs	r0, #9
	mov	r1, r8
	add.w	sp, sp, #540
	pop.w	{r8, r9, r10, r11}
	pop	{r4, r5, r6, r7, pc}
.LBB22_64:
	movw	r2, :lower16:.Lanon.0c1329e98a8e4daf707f1d3aba20b49b.153
	movt	r2, :upper16:.Lanon.0c1329e98a8e4daf707f1d3aba20b49b.153
	bl	core::panicking::panic_bounds_check::h693951cbac28abbe
	.inst.n	0xdefe
.LBB22_65:
	movw	r0, :lower16:.Lanon.0c1329e98a8e4daf707f1d3aba20b49b.133
	movw	r2, :lower16:.Lanon.0c1329e98a8e4daf707f1d3aba20b49b.134
	movt	r0, :upper16:.Lanon.0c1329e98a8e4daf707f1d3aba20b49b.133
	movt	r2, :upper16:.Lanon.0c1329e98a8e4daf707f1d3aba20b49b.134
	movs	r1, #46
	bl	core::panicking::panic::ha0d68f1d939a874b
	.inst.n	0xdefe
.LBB22_66:
	cmp	r0, #4
	bne	.LBB22_70
	movw	r0, :lower16:.Lanon.0c1329e98a8e4daf707f1d3aba20b49b.156
	movw	r2, :lower16:.Lanon.0c1329e98a8e4daf707f1d3aba20b49b.157
	movt	r0, :upper16:.Lanon.0c1329e98a8e4daf707f1d3aba20b49b.156
	movt	r2, :upper16:.Lanon.0c1329e98a8e4daf707f1d3aba20b49b.157
	movs	r1, #39
	bl	core::panicking::panic::ha0d68f1d939a874b
	.inst.n	0xdefe
.LBB22_68:
	cmp	r0, #0
	movw	r6, :lower16:.Lanon.0c1329e98a8e4daf707f1d3aba20b49b.7
	it	ne
	movne	r0, #1
	strb.w	r0, [sp, #24]
	movw	r0, :lower16:.Lanon.0c1329e98a8e4daf707f1d3aba20b49b.5
	movw	r3, :lower16:.Lanon.0c1329e98a8e4daf707f1d3aba20b49b.360
	movt	r6, :upper16:.Lanon.0c1329e98a8e4daf707f1d3aba20b49b.7
	movt	r0, :upper16:.Lanon.0c1329e98a8e4daf707f1d3aba20b49b.5
	movt	r3, :upper16:.Lanon.0c1329e98a8e4daf707f1d3aba20b49b.360
	add	r2, sp, #24
	movs	r1, #12
	str	r6, [sp]
	bl	core::result::unwrap_failed::he67be68ddf63c991
	.inst.n	0xdefe
.LBB22_69:
	movw	r2, :lower16:.Lanon.dc80c87ea47a70125c3d5d93959ab909.128
	movt	r2, :upper16:.Lanon.dc80c87ea47a70125c3d5d93959ab909.128
	bl	core::slice::index::slice_index_order_fail::h8a53f055fb6ee074
	.inst.n	0xdefe
.LBB22_70:
	movw	r0, :lower16:.Lanon.0c1329e98a8e4daf707f1d3aba20b49b.154
	movw	r2, :lower16:.Lanon.0c1329e98a8e4daf707f1d3aba20b49b.155
	movt	r0, :upper16:.Lanon.0c1329e98a8e4daf707f1d3aba20b49b.154
	movt	r2, :upper16:.Lanon.0c1329e98a8e4daf707f1d3aba20b49b.155
	movs	r1, #41
	bl	core::option::expect_failed::h22026eb39ea9589c
	.inst.n	0xdefe
.LBB22_71:
	movw	r2, :lower16:.Lanon.0c1329e98a8e4daf707f1d3aba20b49b.136
	mov	r0, r4
	movt	r2, :upper16:.Lanon.0c1329e98a8e4daf707f1d3aba20b49b.136
	mov	r1, r11
	bl	core::slice::index::slice_start_index_len_fail::haaeda2757c9375c3
	.inst.n	0xdefe
.LBB22_72:
	movw	r6, :lower16:.Lanon.0c1329e98a8e4daf707f1d3aba20b49b.137
	movw	r0, :lower16:.Lanon.0c1329e98a8e4daf707f1d3aba20b49b.363
	movw	r3, :lower16:.Lanon.0c1329e98a8e4daf707f1d3aba20b49b.369
	movt	r6, :upper16:.Lanon.0c1329e98a8e4daf707f1d3aba20b49b.137
	movt	r0, :upper16:.Lanon.0c1329e98a8e4daf707f1d3aba20b49b.363
	movt	r3, :upper16:.Lanon.0c1329e98a8e4daf707f1d3aba20b49b.369
	add	r2, sp, #24
	movs	r1, #43
	str	r6, [sp]
	bl	core::result::unwrap_failed::he67be68ddf63c991
	.inst.n	0xdefe
.Lfunc_end22:
	.size	minimq::network_manager::InterfaceHolder<TcpStack,_>::write::h19b74f0c592580bd, .Lfunc_end22-minimq::network_manager::InterfaceHolder<TcpStack,_>::write::h19b74f0c592580bd
	.cfi_endproc
	.cantunwind
	.fnend

	.section	".text._ZN6minimq15network_manager35InterfaceHolder$LT$TcpStack$C$_$GT$4read17hdad4c2469d70da69E","ax",%progbits
	.p2align	1
	.type	minimq::network_manager::InterfaceHolder<TcpStack,_>::read::hdad4c2469d70da69,%function
	.code	16
	.thumb_func
minimq::network_manager::InterfaceHolder<TcpStack,_>::read::hdad4c2469d70da69:
.Lfunc_begin23:
	.fnstart
	.cfi_startproc
	.save	{r4, r5, r6, r7, lr}
	push	{r4, r5, r6, r7, lr}
	.cfi_def_cfa_offset 20
	.cfi_offset lr, -4
	.cfi_offset r7, -8
	.cfi_offset r6, -12
	.cfi_offset r5, -16
	.cfi_offset r4, -20
	.setfp	r7, sp, #12
	add	r7, sp, #12
	.cfi_def_cfa r7, 8
	.save	{r8, r9, r10, r11}
	push.w	{r8, r9, r10, r11}
	.cfi_offset r11, -24
	.cfi_offset r10, -28
	.cfi_offset r9, -32
	.cfi_offset r8, -36
	.pad	#20
	sub	sp, #20
	ldr	r2, [r0]
	cmp	r2, #1
	bne	.LBB23_17
	ldr.w	r12, [r0, #8]
	mov	lr, r1
	add.w	r9, r12, #288
	ldrexb	r1, [r9]
	cbnz	r1, .LBB23_5
	dmb	sy
	movs	r2, #1
.LBB23_3:
	strexb	r3, r2, [r9]
	cbz	r3, .LBB23_6
	ldrexb	r1, [r9]
	cmp	r1, #0
	beq	.LBB23_3
.LBB23_5:
	clrex
	movs	r2, #0
.LBB23_6:
	dmb	sy
	cmp	r2, #0
	beq.w	.LBB23_44
	ldr.w	r1, [r12, #56]
	movs	r3, #0
	add.w	r2, r1, r1, lsl #3
	ldr.w	r1, [r12, #52]
	rsbs	r2, r2, #0
	lsls	r5, r2, #1
	adds	r4, r5, r3
	beq	.LBB23_16
.LBB23_8:
	ldrb	r2, [r1, r3]
	cbz	r2, .LBB23_18
	adds.w	r2, r4, #18
	beq	.LBB23_16
	adds	r2, r1, r3
	ldrb	r6, [r2, #18]
	cbz	r6, .LBB23_19
	adds.w	r6, r4, #36
	beq	.LBB23_16
	ldrb.w	r6, [r2, #36]
	cbz	r6, .LBB23_20
	adds.w	r6, r4, #54
	beq	.LBB23_16
	ldrb.w	r6, [r2, #54]
	cmp	r6, #0
	beq	.LBB23_30
	adds	r3, #72
	adds	r4, r5, r3
	bne	.LBB23_8
.LBB23_16:
	movw	r0, :lower16:.Lanon.a766a8867b32155983aeb12c9f88ad10.275
	movw	r2, :lower16:.Lanon.0c1329e98a8e4daf707f1d3aba20b49b.63
	movt	r0, :upper16:.Lanon.a766a8867b32155983aeb12c9f88ad10.275
	movt	r2, :upper16:.Lanon.0c1329e98a8e4daf707f1d3aba20b49b.63
	movs	r1, #43
	bl	core::panicking::panic::ha0d68f1d939a874b
	.inst.n	0xdefe
.LBB23_17:
	movs	r1, #0
	movw	r0, #513
	add	sp, #20
	pop.w	{r8, r9, r10, r11}
	pop	{r4, r5, r6, r7, pc}
.LBB23_18:
	add	r1, r3
	ldrb	r1, [r1, #1]
	movs	r6, #0
	cbnz	r1, .LBB23_21
	b	.LBB23_31
.LBB23_19:
	add.w	r1, r2, #18
	ldrb	r1, [r1, #1]
	movs	r6, #0
	cbnz	r1, .LBB23_21
	b	.LBB23_31
.LBB23_20:
	add.w	r1, r2, #36
	ldrb	r1, [r1, #1]
	movs	r6, #0
	cmp	r1, #0
	beq	.LBB23_31
.LBB23_21:
	ldr	r0, [r0, #4]
	ldr.w	r1, [r12, #88]
	cmp	r1, r0
	bls.w	.LBB23_41
	mov.w	r1, #392
	ldr.w	r2, [r12, #84]
	mla	r11, r0, r1, r2
	ldr	r0, [r11, #40]!
	cmp	r0, #2
	bne.w	.LBB23_42
	ldrb.w	r0, [r11, #318]
	ldr.w	r8, [r11, #212]
	subs	r0, #4
	cmp	r0, #3
	blo	.LBB23_26
	cmp.w	r8, #0
	bne	.LBB23_26
	movs	r1, #0
	movs	r2, #2
	movs	r3, #0
	b	.LBB23_40
.LBB23_26:
	ldrd	r10, r4, [r11, #204]
	sub.w	r5, r10, r4
	cmp	r8, r5
	it	ls
	movls	r5, r8
	adds	r1, r5, r4
	bhs.w	.LBB23_47
	cmp	r1, r10
	bhi.w	.LBB23_45
	ldr.w	r0, [r11, #200]
	cmp.w	r5, #1024
	str	r0, [sp, #8]
	add.w	r1, r0, r4
	it	hs
	movhs.w	r5, #1024
	mov	r0, lr
	mov	r2, r5
	str.w	lr, [sp, #12]
	bl	__aeabi_memcpy
	cmp.w	r10, #0
	beq	.LBB23_32
	adds	r0, r5, r4
	udiv	r1, r0, r10
	mls	r6, r1, r10, r0
	b	.LBB23_33
.LBB23_30:
	add.w	r1, r2, #54
	ldrb	r1, [r1, #1]
	movs	r6, #0
	cmp	r1, #0
	bne	.LBB23_21
.LBB23_31:
	movs	r2, #5
	movs	r1, #0
	movs	r3, #0
	b	.LBB23_40
.LBB23_32:
	movs	r6, #0
.LBB23_33:
	sub.w	r8, r8, r5
	sub.w	r4, r10, r6
	cmp	r8, r4
	it	ls
	movls	r4, r8
	adds	r1, r4, r6
	ldr	r0, [sp, #12]
	bhs.w	.LBB23_48
	cmp	r1, r10
	bhi	.LBB23_45
	rsb.w	r2, r5, #1024
	ldr	r1, [sp, #8]
	add	r0, r5
	cmp	r2, r4
	add	r1, r6
	it	lo
	movlo	r4, r2
	mov	r2, r4
	bl	__aeabi_memcpy
	cmp.w	r10, #0
	beq	.LBB23_37
	adds	r0, r4, r6
	udiv	r1, r0, r10
	mls	r0, r1, r10, r0
	b	.LBB23_38
.LBB23_37:
	movs	r0, #0
.LBB23_38:
	adds	r1, r4, r5
	movs	r6, #0
	cmp.w	r1, #-1
	sub.w	r2, r8, r4
	strd	r0, r2, [r11, #208]
	ble	.LBB23_49
	ldr.w	r0, [r11, #236]
	movs	r3, #1
	movs	r2, #2
	add	r0, r1
	str.w	r0, [r11, #236]
.LBB23_40:
	dmb	sy
	strb.w	r6, [r9]
	eor	r0, r3, #1
	dmb	sy
	cmp	r3, #0
	itt	eq
	moveq	r1, r3
	orreq.w	r0, r0, r2, lsl #16
	add	sp, #20
	pop.w	{r8, r9, r10, r11}
	pop	{r4, r5, r6, r7, pc}
.LBB23_41:
	movw	r2, :lower16:.Lanon.0c1329e98a8e4daf707f1d3aba20b49b.153
	movt	r2, :upper16:.Lanon.0c1329e98a8e4daf707f1d3aba20b49b.153
	bl	core::panicking::panic_bounds_check::h693951cbac28abbe
	.inst.n	0xdefe
.LBB23_42:
	cmp	r0, #4
	bne	.LBB23_46
	movw	r0, :lower16:.Lanon.0c1329e98a8e4daf707f1d3aba20b49b.156
	movw	r2, :lower16:.Lanon.0c1329e98a8e4daf707f1d3aba20b49b.157
	movt	r0, :upper16:.Lanon.0c1329e98a8e4daf707f1d3aba20b49b.156
	movt	r2, :upper16:.Lanon.0c1329e98a8e4daf707f1d3aba20b49b.157
	movs	r1, #39
	bl	core::panicking::panic::ha0d68f1d939a874b
	.inst.n	0xdefe
.LBB23_44:
	cmp	r1, #0
	movw	r0, :lower16:.Lanon.0c1329e98a8e4daf707f1d3aba20b49b.5
	it	ne
	movne	r1, #1
	movw	r3, :lower16:.Lanon.0c1329e98a8e4daf707f1d3aba20b49b.360
	strb	r1, [r7, #-29]
	movw	r6, :lower16:.Lanon.0c1329e98a8e4daf707f1d3aba20b49b.7
	movt	r0, :upper16:.Lanon.0c1329e98a8e4daf707f1d3aba20b49b.5
	movt	r3, :upper16:.Lanon.0c1329e98a8e4daf707f1d3aba20b49b.360
	sub.w	r2, r7, #29
	movs	r1, #12
	movt	r6, :upper16:.Lanon.0c1329e98a8e4daf707f1d3aba20b49b.7
	str	r6, [sp]
	bl	core::result::unwrap_failed::he67be68ddf63c991
	.inst.n	0xdefe
.LBB23_45:
	movw	r2, :lower16:.Lanon.dc80c87ea47a70125c3d5d93959ab909.129
	mov	r0, r1
	movt	r2, :upper16:.Lanon.dc80c87ea47a70125c3d5d93959ab909.129
	mov	r1, r10
	bl	core::slice::index::slice_end_index_len_fail::h5a91c503035fd6a0
	.inst.n	0xdefe
.LBB23_46:
	movw	r0, :lower16:.Lanon.0c1329e98a8e4daf707f1d3aba20b49b.154
	movw	r2, :lower16:.Lanon.0c1329e98a8e4daf707f1d3aba20b49b.155
	movt	r0, :upper16:.Lanon.0c1329e98a8e4daf707f1d3aba20b49b.154
	movt	r2, :upper16:.Lanon.0c1329e98a8e4daf707f1d3aba20b49b.155
	movs	r1, #41
	bl	core::option::expect_failed::h22026eb39ea9589c
	.inst.n	0xdefe
.LBB23_47:
	movw	r2, :lower16:.Lanon.dc80c87ea47a70125c3d5d93959ab909.129
	mov	r0, r4
	movt	r2, :upper16:.Lanon.dc80c87ea47a70125c3d5d93959ab909.129
	bl	core::slice::index::slice_index_order_fail::h8a53f055fb6ee074
	.inst.n	0xdefe
.LBB23_48:
	movw	r2, :lower16:.Lanon.dc80c87ea47a70125c3d5d93959ab909.129
	mov	r0, r6
	movt	r2, :upper16:.Lanon.dc80c87ea47a70125c3d5d93959ab909.129
	bl	core::slice::index::slice_index_order_fail::h8a53f055fb6ee074
	.inst.n	0xdefe
.LBB23_49:
	movw	r0, :lower16:.Lanon.dc80c87ea47a70125c3d5d93959ab909.593
	movw	r2, :lower16:.Lanon.dc80c87ea47a70125c3d5d93959ab909.595
	movt	r0, :upper16:.Lanon.dc80c87ea47a70125c3d5d93959ab909.593
	movt	r2, :upper16:.Lanon.dc80c87ea47a70125c3d5d93959ab909.595
	movs	r1, #56
	bl	core::panicking::panic::ha0d68f1d939a874b
	.inst.n	0xdefe
.Lfunc_end23:
	.size	minimq::network_manager::InterfaceHolder<TcpStack,_>::read::hdad4c2469d70da69, .Lfunc_end23-minimq::network_manager::InterfaceHolder<TcpStack,_>::read::hdad4c2469d70da69
	.cfi_endproc
	.cantunwind
	.fnend

	.section	.text._ZN14thermostat_eem8hardware12adc_internal11AdcInternal17read_p3v3_voltage17h6384078c1e9603b1E,"ax",%progbits
	.p2align	2
	.type	thermostat_eem::hardware::adc_internal::AdcInternal::read_p3v3_voltage::h6384078c1e9603b1,%function
	.code	16
	.thumb_func
thermostat_eem::hardware::adc_internal::AdcInternal::read_p3v3_voltage::h6384078c1e9603b1:
.Lfunc_begin24:
	.fnstart
	.cfi_startproc
	.save	{r4, r5, r7, lr}
	push	{r4, r5, r7, lr}
	.cfi_def_cfa_offset 16
	.cfi_offset lr, -4
	.cfi_offset r7, -8
	.cfi_offset r5, -12
	.cfi_offset r4, -16
	.setfp	r7, sp, #8
	add	r7, sp, #8
	.cfi_def_cfa r7, 8
	movw	r5, #24576
	mov	r4, r0
	movt	r5, #22530
	bl	stm32h7xx_hal::adc::Adc<stm32h7::stm32h743v::ADC3,stm32h7xx_hal::adc::Enabled>::check_conversion_conditions::h48973f161e2166bd
	ldrb	r1, [r4, #6]
	ldrb	r2, [r4, #5]
	ldrb.w	r12, [r4, #7]
	ldr	r3, [r5, #12]
	and	r0, r1, #7
	bic	r3, r3, #28
	and	r2, r2, #7
	orr.w	r0, r3, r0, lsl #2
	str	r0, [r5, #12]
	ldr	r0, [r5, #16]
	movw	r3, :lower16:.Lswitch.table._ZN14thermostat_eem8hardware12adc_internal11AdcInternal17read_p3v3_voltage17h6384078c1e9603b1E
	bic	r0, r0, #-268435456
	movt	r3, :upper16:.Lswitch.table._ZN14thermostat_eem8hardware12adc_internal11AdcInternal17read_p3v3_voltage17h6384078c1e9603b1E
	orr.w	r0, r0, r12, lsl #28
	str	r0, [r5, #16]
	ldr	r0, [r5, #28]
	orr	r0, r0, #8
	str	r0, [r5, #28]
	eor	r0, r2, #4
	ldr	r2, [r5, #20]
	bic	r2, r2, #3584
	ldr.w	r0, [r3, r0, lsl #2]
	orrs	r0, r2
	str	r0, [r5, #20]
	ldr	r0, [r5, #48]
	movw	r2, #1999
	bics	r0, r2
	adds	r0, #192
	str	r0, [r5, #48]
	movs	r0, #3
	strb	r0, [r4, #9]
	ldr	r0, [r5, #8]
	orr	r0, r0, #4
	str	r0, [r5, #8]
.LBB24_1:
	ldr	r0, [r5]
	lsls	r0, r0, #29
	bmi	.LBB24_4
	ldr	r0, [r5]
	lsls	r0, r0, #29
	itt	pl
	ldrpl	r0, [r5]
	lslspl.w	r0, r0, #29
	bmi	.LBB24_4
	ldr	r0, [r5]
	lsls	r0, r0, #29
	bpl	.LBB24_1
.LBB24_4:
	ldr	r0, [r5, #28]
	bic	r0, r0, #8
	str	r0, [r5, #28]
	movs	r0, #0
	strb	r0, [r4, #8]
	sbfx	r2, r1, #0, #3
	cmp.w	r2, #-1
	ldr	r2, [r5, #64]
	blt	.LBB24_6
	adds	r0, r1, #1
	movw	r1, :lower16:.Lswitch.table._ZN14thermostat_eem8hardware12adc_internal11AdcInternal17read_p3v3_voltage17h6384078c1e9603b1E.1516
	and	r0, r0, #7
	movt	r1, :upper16:.Lswitch.table._ZN14thermostat_eem8hardware12adc_internal11AdcInternal17read_p3v3_voltage17h6384078c1e9603b1E.1516
	ldr.w	r1, [r1, r0, lsl #2]
	b	.LBB24_7
.LBB24_6:
	movs	r1, #16
.LBB24_7:
	mov.w	r0, #-1
	vmov	s0, r2
	lsls	r0, r1
	and	r1, r12, #31
	mvns	r0, r0
	lsls	r0, r1
	vcvt.f32.u32	s0, s0
	vmov	s2, r0
	vcvt.f32.u32	s2, s2
	vdiv.f32	s0, s0, s2
	vldr	s2, .LCPI24_0
	vmul.f32	s0, s0, s2
	pop	{r4, r5, r7, pc}
	.p2align	2
.LCPI24_0:
	.long	0x406d2d2e
.Lfunc_end24:
	.size	thermostat_eem::hardware::adc_internal::AdcInternal::read_p3v3_voltage::h6384078c1e9603b1, .Lfunc_end24-thermostat_eem::hardware::adc_internal::AdcInternal::read_p3v3_voltage::h6384078c1e9603b1
	.cfi_endproc
	.cantunwind
	.fnend

	.section	.text._ZN14thermostat_eem8hardware12adc_internal11AdcInternal16read_p5v_voltage17hd7943cf86bed6258E,"ax",%progbits
	.p2align	2
	.type	thermostat_eem::hardware::adc_internal::AdcInternal::read_p5v_voltage::hd7943cf86bed6258,%function
	.code	16
	.thumb_func
thermostat_eem::hardware::adc_internal::AdcInternal::read_p5v_voltage::hd7943cf86bed6258:
.Lfunc_begin25:
	.fnstart
	.cfi_startproc
	.save	{r4, r5, r7, lr}
	push	{r4, r5, r7, lr}
	.cfi_def_cfa_offset 16
	.cfi_offset lr, -4
	.cfi_offset r7, -8
	.cfi_offset r5, -12
	.cfi_offset r4, -16
	.setfp	r7, sp, #8
	add	r7, sp, #8
	.cfi_def_cfa r7, 8
	movw	r5, #8192
	mov	r4, r0
	movt	r5, #16386
	bl	stm32h7xx_hal::adc::Adc<stm32h7::stm32h743v::ADC1,stm32h7xx_hal::adc::Enabled>::check_conversion_conditions::h7b40729b58c989da
	ldrb	r1, [r4, #1]
	ldrb	r2, [r4]
	ldrb.w	r12, [r4, #2]
	ldr	r3, [r5, #12]
	and	r0, r1, #7
	bic	r3, r3, #28
	and	r2, r2, #7
	orr.w	r0, r3, r0, lsl #2
	str	r0, [r5, #12]
	ldr	r0, [r5, #16]
	movw	r3, :lower16:.Lswitch.table._ZN14thermostat_eem8hardware12adc_internal11AdcInternal16read_p5v_voltage17hd7943cf86bed6258E
	bic	r0, r0, #-268435456
	movt	r3, :upper16:.Lswitch.table._ZN14thermostat_eem8hardware12adc_internal11AdcInternal16read_p5v_voltage17hd7943cf86bed6258E
	orr.w	r0, r0, r12, lsl #28
	str	r0, [r5, #16]
	ldr	r0, [r5, #28]
	orr	r0, r0, #1024
	str	r0, [r5, #28]
	eor	r0, r2, #4
	ldr	r2, [r5, #24]
	bic	r2, r2, #7
	ldr.w	r0, [r3, r0, lsl #2]
	orrs	r0, r2
	str	r0, [r5, #24]
	ldr	r0, [r5, #48]
	movw	r2, #1999
	bics	r0, r2
	add.w	r0, r0, #640
	str	r0, [r5, #48]
	movs	r0, #10
	strb	r0, [r4, #4]
	ldr	r0, [r5, #8]
	orr	r0, r0, #4
	str	r0, [r5, #8]
.LBB25_1:
	ldr	r0, [r5]
	lsls	r0, r0, #29
	bmi	.LBB25_4
	ldr	r0, [r5]
	lsls	r0, r0, #29
	itt	pl
	ldrpl	r0, [r5]
	lslspl.w	r0, r0, #29
	bmi	.LBB25_4
	ldr	r0, [r5]
	lsls	r0, r0, #29
	bpl	.LBB25_1
.LBB25_4:
	ldr	r0, [r5, #28]
	bic	r0, r0, #1024
	str	r0, [r5, #28]
	movs	r0, #0
	strb	r0, [r4, #3]
	sbfx	r2, r1, #0, #3
	cmp.w	r2, #-1
	ldr	r2, [r5, #64]
	blt	.LBB25_6
	adds	r0, r1, #1
	movw	r1, :lower16:.Lswitch.table._ZN14thermostat_eem8hardware12adc_internal11AdcInternal16read_p5v_voltage17hd7943cf86bed6258E.1517
	and	r0, r0, #7
	movt	r1, :upper16:.Lswitch.table._ZN14thermostat_eem8hardware12adc_internal11AdcInternal16read_p5v_voltage17hd7943cf86bed6258E.1517
	ldr.w	r1, [r1, r0, lsl #2]
	b	.LBB25_7
.LBB25_6:
	movs	r1, #16
.LBB25_7:
	mov.w	r0, #-1
	vmov	s0, r2
	lsls	r0, r1
	and	r1, r12, #31
	mvns	r0, r0
	lsls	r0, r1
	vcvt.f32.u32	s0, s0
	vmov	s2, r0
	vcvt.f32.u32	s2, s2
	vdiv.f32	s0, s0, s2
	vldr	s2, .LCPI25_0
	vmul.f32	s0, s0, s2
	pop	{r4, r5, r7, pc}
	.p2align	2
.LCPI25_0:
	.long	0x40ed2d2c
.Lfunc_end25:
	.size	thermostat_eem::hardware::adc_internal::AdcInternal::read_p5v_voltage::hd7943cf86bed6258, .Lfunc_end25-thermostat_eem::hardware::adc_internal::AdcInternal::read_p5v_voltage::hd7943cf86bed6258
	.cfi_endproc
	.cantunwind
	.fnend

	.section	.text._ZN14thermostat_eem8hardware12adc_internal11AdcInternal17read_p12v_voltage17h207bff0f1b1841c3E,"ax",%progbits
	.p2align	2
	.type	thermostat_eem::hardware::adc_internal::AdcInternal::read_p12v_voltage::h207bff0f1b1841c3,%function
	.code	16
	.thumb_func
thermostat_eem::hardware::adc_internal::AdcInternal::read_p12v_voltage::h207bff0f1b1841c3:
.Lfunc_begin26:
	.fnstart
	.cfi_startproc
	.save	{r4, r5, r7, lr}
	push	{r4, r5, r7, lr}
	.cfi_def_cfa_offset 16
	.cfi_offset lr, -4
	.cfi_offset r7, -8
	.cfi_offset r5, -12
	.cfi_offset r4, -16
	.setfp	r7, sp, #8
	add	r7, sp, #8
	.cfi_def_cfa r7, 8
	movw	r5, #8192
	mov	r4, r0
	movt	r5, #16386
	bl	stm32h7xx_hal::adc::Adc<stm32h7::stm32h743v::ADC1,stm32h7xx_hal::adc::Enabled>::check_conversion_conditions::h7b40729b58c989da
	ldrb	r1, [r4, #1]
	ldrb	r2, [r4]
	ldrb.w	r12, [r4, #2]
	ldr	r3, [r5, #12]
	and	r0, r1, #7
	bic	r3, r3, #28
	and	r2, r2, #7
	orr.w	r0, r3, r0, lsl #2
	str	r0, [r5, #12]
	ldr	r0, [r5, #16]
	movw	r3, :lower16:.Lswitch.table._ZN14thermostat_eem8hardware12adc_internal11AdcInternal17read_p12v_voltage17h207bff0f1b1841c3E
	bic	r0, r0, #-268435456
	movt	r3, :upper16:.Lswitch.table._ZN14thermostat_eem8hardware12adc_internal11AdcInternal17read_p12v_voltage17h207bff0f1b1841c3E
	orr.w	r0, r0, r12, lsl #28
	str	r0, [r5, #16]
	ldr	r0, [r5, #28]
	orr	r0, r0, #4096
	str	r0, [r5, #28]
	eor	r0, r2, #4
	ldr	r2, [r5, #24]
	bic	r2, r2, #448
	ldr.w	r0, [r3, r0, lsl #2]
	orrs	r0, r2
	str	r0, [r5, #24]
	ldr	r0, [r5, #48]
	movw	r2, #1999
	bics	r0, r2
	add.w	r0, r0, #768
	str	r0, [r5, #48]
	movs	r0, #12
	strb	r0, [r4, #4]
	ldr	r0, [r5, #8]
	orr	r0, r0, #4
	str	r0, [r5, #8]
.LBB26_1:
	ldr	r0, [r5]
	lsls	r0, r0, #29
	bmi	.LBB26_4
	ldr	r0, [r5]
	lsls	r0, r0, #29
	itt	pl
	ldrpl	r0, [r5]
	lslspl.w	r0, r0, #29
	bmi	.LBB26_4
	ldr	r0, [r5]
	lsls	r0, r0, #29
	bpl	.LBB26_1
.LBB26_4:
	ldr	r0, [r5, #28]
	bic	r0, r0, #4096
	str	r0, [r5, #28]
	movs	r0, #0
	strb	r0, [r4, #3]
	sbfx	r2, r1, #0, #3
	cmp.w	r2, #-1
	ldr	r2, [r5, #64]
	blt	.LBB26_6
	adds	r0, r1, #1
	movw	r1, :lower16:.Lswitch.table._ZN14thermostat_eem8hardware12adc_internal11AdcInternal17read_p12v_voltage17h207bff0f1b1841c3E.1518
	and	r0, r0, #7
	movt	r1, :upper16:.Lswitch.table._ZN14thermostat_eem8hardware12adc_internal11AdcInternal17read_p12v_voltage17h207bff0f1b1841c3E.1518
	ldr.w	r1, [r1, r0, lsl #2]
	b	.LBB26_7
.LBB26_6:
	movs	r1, #16
.LBB26_7:
	mov.w	r0, #-1
	vmov	s0, r2
	lsls	r0, r1
	and	r1, r12, #31
	mvns	r0, r0
	lsls	r0, r1
	vcvt.f32.u32	s0, s0
	vmov	s2, r0
	vcvt.f32.u32	s2, s2
	vdiv.f32	s0, s0, s2
	vldr	s2, .LCPI26_0
	vmul.f32	s0, s0, s2
	pop	{r4, r5, r7, pc}
	.p2align	2
.LCPI26_0:
	.long	0x417c0001
.Lfunc_end26:
	.size	thermostat_eem::hardware::adc_internal::AdcInternal::read_p12v_voltage::h207bff0f1b1841c3, .Lfunc_end26-thermostat_eem::hardware::adc_internal::AdcInternal::read_p12v_voltage::h207bff0f1b1841c3
	.cfi_endproc
	.cantunwind
	.fnend

	.section	.text._ZN14thermostat_eem8hardware12adc_internal11AdcInternal17read_p12v_current17hf5e87fe4806b3249E,"ax",%progbits
	.p2align	1
	.type	thermostat_eem::hardware::adc_internal::AdcInternal::read_p12v_current::hf5e87fe4806b3249,%function
	.code	16
	.thumb_func
thermostat_eem::hardware::adc_internal::AdcInternal::read_p12v_current::hf5e87fe4806b3249:
.Lfunc_begin27:
	.fnstart
	.cfi_startproc
	.save	{r4, r5, r7, lr}
	push	{r4, r5, r7, lr}
	.cfi_def_cfa_offset 16
	.cfi_offset lr, -4
	.cfi_offset r7, -8
	.cfi_offset r5, -12
	.cfi_offset r4, -16
	.setfp	r7, sp, #8
	add	r7, sp, #8
	.cfi_def_cfa r7, 8
	movw	r5, #24576
	mov	r4, r0
	movt	r5, #22530
	bl	stm32h7xx_hal::adc::Adc<stm32h7::stm32h743v::ADC3,stm32h7xx_hal::adc::Enabled>::check_conversion_conditions::h48973f161e2166bd
	ldrb	r1, [r4, #6]
	ldrb	r2, [r4, #5]
	ldrb.w	r12, [r4, #7]
	ldr	r3, [r5, #12]
	and	r0, r1, #7
	bic	r3, r3, #28
	and	r2, r2, #7
	orr.w	r0, r3, r0, lsl #2
	str	r0, [r5, #12]
	ldr	r0, [r5, #16]
	movw	r3, :lower16:.Lswitch.table._ZN14thermostat_eem8hardware12adc_internal11AdcInternal17read_p12v_current17hf5e87fe4806b3249E
	bic	r0, r0, #-268435456
	movt	r3, :upper16:.Lswitch.table._ZN14thermostat_eem8hardware12adc_internal11AdcInternal17read_p12v_current17hf5e87fe4806b3249E
	orr.w	r0, r0, r12, lsl #28
	str	r0, [r5, #16]
	ldr	r0, [r5, #28]
	orr	r0, r0, #128
	str	r0, [r5, #28]
	eor	r0, r2, #4
	ldr	r2, [r5, #20]
	bic	r2, r2, #14680064
	ldr.w	r0, [r3, r0, lsl #2]
	orrs	r0, r2
	str	r0, [r5, #20]
	ldr	r0, [r5, #48]
	movw	r2, #1999
	bics	r0, r2
	add.w	r0, r0, #448
	str	r0, [r5, #48]
	movs	r0, #7
	strb	r0, [r4, #9]
	ldr	r0, [r5, #8]
	orr	r0, r0, #4
	str	r0, [r5, #8]
.LBB27_1:
	ldr	r0, [r5]
	lsls	r0, r0, #29
	bmi	.LBB27_4
	ldr	r0, [r5]
	lsls	r0, r0, #29
	itt	pl
	ldrpl	r0, [r5]
	lslspl.w	r0, r0, #29
	bmi	.LBB27_4
	ldr	r0, [r5]
	lsls	r0, r0, #29
	bpl	.LBB27_1
.LBB27_4:
	ldr	r0, [r5, #28]
	bic	r0, r0, #128
	str	r0, [r5, #28]
	movs	r0, #0
	strb	r0, [r4, #8]
	sbfx	r2, r1, #0, #3
	cmp.w	r2, #-1
	ldr	r2, [r5, #64]
	blt	.LBB27_6
	adds	r0, r1, #1
	movw	r1, :lower16:.Lswitch.table._ZN14thermostat_eem8hardware12adc_internal11AdcInternal17read_p12v_current17hf5e87fe4806b3249E.1519
	and	r0, r0, #7
	movt	r1, :upper16:.Lswitch.table._ZN14thermostat_eem8hardware12adc_internal11AdcInternal17read_p12v_current17hf5e87fe4806b3249E.1519
	ldr.w	r1, [r1, r0, lsl #2]
	b	.LBB27_7
.LBB27_6:
	movs	r1, #16
.LBB27_7:
	mov.w	r0, #-1
	vmov	s0, r2
	lsls	r0, r1
	and	r1, r12, #31
	mvns	r0, r0
	lsls	r0, r1
	vcvt.f32.u32	s0, s0
	vmov	s2, r0
	vcvt.f32.u32	s2, s2
	vdiv.f32	s0, s0, s2
	vmov.f32	s2, #6.000000e+00
	vmul.f32	s0, s0, s2
	pop	{r4, r5, r7, pc}
.Lfunc_end27:
	.size	thermostat_eem::hardware::adc_internal::AdcInternal::read_p12v_current::hf5e87fe4806b3249, .Lfunc_end27-thermostat_eem::hardware::adc_internal::AdcInternal::read_p12v_current::hf5e87fe4806b3249
	.cfi_endproc
	.cantunwind
	.fnend

	.section	".text._ZN94_$LT$serde_json_core..ser..struct_..SerializeStruct$u20$as$u20$serde..ser..SerializeStruct$GT$15serialize_field17h9b0dd3205c6f882aE","ax",%progbits
	.p2align	1
	.type	<serde_json_core::ser::struct_::SerializeStruct as serde::ser::SerializeStruct>::serialize_field::h9b0dd3205c6f882a,%function
	.code	16
	.thumb_func
<serde_json_core::ser::struct_::SerializeStruct as serde::ser::SerializeStruct>::serialize_field::h9b0dd3205c6f882a:
.Lfunc_begin28:
	.fnstart
	.cfi_startproc
	.save	{r4, r5, r6, r7, lr}
	push	{r4, r5, r6, r7, lr}
	.cfi_def_cfa_offset 20
	.cfi_offset lr, -4
	.cfi_offset r7, -8
	.cfi_offset r6, -12
	.cfi_offset r5, -16
	.cfi_offset r4, -20
	.setfp	r7, sp, #12
	add	r7, sp, #12
	.cfi_def_cfa r7, 8
	.save	{r8, r9, r10, r11}
	push.w	{r8, r9, r10, r11}
	.cfi_offset r11, -24
	.cfi_offset r10, -28
	.cfi_offset r9, -32
	.cfi_offset r8, -36
	.pad	#20
	sub	sp, #20
	ldrb	r6, [r0, #4]
	ldr	r4, [r0]
	cbz	r6, .LBB28_2
	ldr.w	r11, [r4, #8]
	b	.LBB28_4
.LBB28_2:
	ldrd	r5, r6, [r4, #4]
	cmp	r6, r5
	bhs.w	.LBB28_29
	ldr.w	r12, [r4]
	movs	r5, #44
	add.w	r11, r6, #1
	str.w	r11, [r4, #8]
	strb.w	r5, [r12, r6]
.LBB28_4:
	ldr	r6, [r4, #4]
	cmp	r11, r6
	mov.w	r6, #0
	strb	r6, [r0, #4]
	bhs.w	.LBB28_29
	ldr	r0, [r4]
	movs	r6, #34
	strb.w	r6, [r0, r11]
	add.w	r6, r11, #1
	adds	r0, r6, r2
	ldr	r5, [r4, #4]
	cmp	r0, r5
	str	r6, [r4, #8]
	bhi.w	.LBB28_29
	str	r3, [sp, #12]
	cmp	r5, r6
	ldr	r0, [r4]
	str	r5, [sp, #4]
	it	hi
	movhi	r6, r5
	sub.w	r10, r11, r6
	add	r2, r1
	str	r6, [sp, #8]
	add.w	r9, r10, #1
	movs	r6, #0
	add	r0, r11
	str	r0, [sp, #16]
.LBB28_7:
	adds.w	r0, r9, r6
	beq.w	.LBB28_31
	ldr	r0, [sp, #16]
	ldrb	r3, [r1, r6]
	adds	r5, r0, r6
	adds	r0, r1, r6
	adds	r0, #1
	add.w	r8, r11, r6
	strb	r3, [r5, #1]
	cmp	r0, r2
	add.w	r3, r8, #2
	str	r3, [r4, #8]
	beq	.LBB28_16
	add.w	r12, r10, r6
	adds.w	r3, r12, #2
	beq.w	.LBB28_31
	ldrb	r3, [r0]
	adds	r0, #1
	strb	r3, [r5, #2]
	cmp	r0, r2
	add.w	r3, r8, #3
	str	r3, [r4, #8]
	beq	.LBB28_16
	adds.w	r3, r12, #3
	beq	.LBB28_31
	ldrb	r3, [r0]
	add.w	lr, r0, #1
	strb	r3, [r5, #3]
	cmp	lr, r2
	add.w	r3, r8, #4
	str	r3, [r4, #8]
	beq	.LBB28_16
	adds.w	r0, r12, #4
	beq	.LBB28_31
	ldrb.w	r0, [lr]
	adds	r6, #4
	strb	r0, [r5, #4]
	add.w	r0, lr, #1
	cmp	r0, r2
	add.w	r3, r8, #5
	str	r3, [r4, #8]
	bne	.LBB28_7
	add.w	r0, r11, r6
	adds	r3, r0, #1
.LBB28_16:
	adds	r2, r3, #2
	ldr	r1, [r4, #4]
	cmp	r2, r1
	ldr.w	r8, [sp, #12]
	bhi	.LBB28_29
	cmp	r1, r3
	mov	r0, r3
	it	hi
	movhi	r0, r1
	cmp	r3, r1
	bhs	.LBB28_32
	ldr	r6, [r4]
	adds	r5, r3, #1
	cmp	r5, r0
	mov.w	r12, #34
	strb.w	r12, [r6, r3]
	str	r5, [r4, #8]
	beq	.LBB28_32
	movs	r0, #58
	strb	r0, [r6, r5]
	ldr	r0, [r4, #4]
	str	r2, [r4, #8]
	cmp	r2, r0
	bhs	.LBB28_29
	ldr	r0, [r4]
	movs	r1, #91
	vldr	s0, [r8]
	strb	r1, [r0, r2]
	adds	r0, r3, #3
	str	r0, [r4, #8]
	mov	r0, r4
	bl	<&mut serde_json_core::ser::Serializer as serde::ser::Serializer>::serialize_f32::h9646727876011b6e
	cbnz	r0, .LBB28_29
	ldrd	r1, r0, [r4, #4]
	cmp	r0, r1
	bhs	.LBB28_29
	ldr	r1, [r4]
	movs	r2, #44
	vldr	s0, [r8, #4]
	strb	r2, [r1, r0]
	adds	r0, #1
	str	r0, [r4, #8]
	mov	r0, r4
	bl	<&mut serde_json_core::ser::Serializer as serde::ser::Serializer>::serialize_f32::h9646727876011b6e
	cbnz	r0, .LBB28_29
	ldrd	r1, r0, [r4, #4]
	cmp	r0, r1
	bhs	.LBB28_29
	ldr	r1, [r4]
	movs	r2, #44
	vldr	s0, [r8, #8]
	strb	r2, [r1, r0]
	adds	r0, #1
	str	r0, [r4, #8]
	mov	r0, r4
	bl	<&mut serde_json_core::ser::Serializer as serde::ser::Serializer>::serialize_f32::h9646727876011b6e
	cbnz	r0, .LBB28_29
	ldrd	r1, r0, [r4, #4]
	cmp	r0, r1
	bhs	.LBB28_29
	ldr	r1, [r4]
	movs	r2, #44
	vldr	s0, [r8, #12]
	strb	r2, [r1, r0]
	adds	r0, #1
	str	r0, [r4, #8]
	mov	r0, r4
	bl	<&mut serde_json_core::ser::Serializer as serde::ser::Serializer>::serialize_f32::h9646727876011b6e
	cbnz	r0, .LBB28_29
	ldrd	r1, r0, [r4, #4]
	cmp	r0, r1
	bhs	.LBB28_29
	ldr	r1, [r4]
	movs	r2, #93
	strb	r2, [r1, r0]
	adds	r0, #1
	str	r0, [r4, #8]
	movs	r0, #0
	b	.LBB28_30
.LBB28_29:
	movs	r0, #1
.LBB28_30:
	add	sp, #20
	pop.w	{r8, r9, r10, r11}
	pop	{r4, r5, r6, r7, pc}
.LBB28_31:
	movw	r2, :lower16:.Lanon.c5389c40fbf9b668b5009946a4adcadf.25
	movt	r2, :upper16:.Lanon.c5389c40fbf9b668b5009946a4adcadf.25
	ldrd	r1, r0, [sp, #4]
	bl	core::panicking::panic_bounds_check::h693951cbac28abbe
	.inst.n	0xdefe
.LBB28_32:
	movw	r2, :lower16:.Lanon.c5389c40fbf9b668b5009946a4adcadf.25
	movt	r2, :upper16:.Lanon.c5389c40fbf9b668b5009946a4adcadf.25
	bl	core::panicking::panic_bounds_check::h693951cbac28abbe
	.inst.n	0xdefe
.Lfunc_end28:
	.size	<serde_json_core::ser::struct_::SerializeStruct as serde::ser::SerializeStruct>::serialize_field::h9b0dd3205c6f882a, .Lfunc_end28-<serde_json_core::ser::struct_::SerializeStruct as serde::ser::SerializeStruct>::serialize_field::h9b0dd3205c6f882a
	.cfi_endproc
	.cantunwind
	.fnend

	.section	".text._ZN6minimq13session_state33SessionState$LT$Clock$C$_$C$_$GT$13handle_puback17h378a4214fd68aadcE","ax",%progbits
	.p2align	1
	.type	minimq::session_state::SessionState<Clock,_,_>::handle_puback::h378a4214fd68aadc,%function
	.code	16
	.thumb_func
minimq::session_state::SessionState<Clock,_,_>::handle_puback::h378a4214fd68aadc:
.Lfunc_begin29:
	.fnstart
	.cfi_startproc
	.save	{r4, r5, r6, r7, lr}
	push	{r4, r5, r6, r7, lr}
	.cfi_def_cfa_offset 20
	.cfi_offset lr, -4
	.cfi_offset r7, -8
	.cfi_offset r6, -12
	.cfi_offset r5, -16
	.cfi_offset r4, -20
	.setfp	r7, sp, #12
	add	r7, sp, #12
	.cfi_def_cfa r7, 8
	.save	{r8, r9, r10}
	push.w	{r8, r9, r10}
	.cfi_offset r10, -24
	.cfi_offset r9, -28
	.cfi_offset r8, -32
	.pad	#520
	sub.w	sp, sp, #520
	ldr.w	r12, [r0, #688]
	mov	r10, r0
	add.w	r2, r10, #168
	movs	r3, #0
	add.w	r0, r12, r12, lsl #6
	uxth	r6, r1
	lsls	r5, r0, #3
	add.w	r1, r2, r0, lsl #3
	mov	r0, r2
.LBB29_1:
	cmp	r5, #0
	beq	.LBB29_14
	ldrh	r4, [r0]
	cmp	r4, r6
	beq	.LBB29_12
	add.w	r4, r0, #520
	cmp	r4, r1
	beq	.LBB29_14
	ldrh.w	r4, [r0, #520]
	cmp	r4, r6
	beq	.LBB29_10
	add.w	r4, r0, #1040
	cmp	r4, r1
	beq	.LBB29_14
	ldrh.w	r4, [r0, #1040]
	cmp	r4, r6
	beq	.LBB29_11
	add.w	r4, r0, #1560
	cmp	r4, r1
	beq	.LBB29_14
	ldrh.w	r4, [r0, #1560]
	add.w	r0, r0, #2080
	adds	r3, #4
	sub.w	r5, r5, #2080
	cmp	r4, r6
	bne	.LBB29_1
	subs	r3, #1
	b	.LBB29_12
.LBB29_10:
	adds	r3, #1
	b	.LBB29_12
.LBB29_11:
	adds	r3, #2
.LBB29_12:
	cmp	r12, r3
	bls	.LBB29_28
	add.w	r0, r3, r3, lsl #6
	mov	r8, sp
	sub.w	r9, r1, #520
	add.w	r5, r2, r0, lsl #3
	mov.w	r2, #520
	mov	r0, r8
	mov	r1, r5
	bl	__aeabi_memcpy4
	mov.w	r2, #520
	mov	r0, r5
	mov	r1, r9
	bl	__aeabi_memmove4
	mov.w	r2, #520
	mov	r0, r9
	mov	r1, r8
	bl	__aeabi_memcpy4
	ldr.w	r0, [r10, #688]
	subs	r0, #1
	str.w	r0, [r10, #688]
.LBB29_14:
	ldr.w	r1, [r10, #692]
	cbz	r1, .LBB29_24
	add.w	r2, r10, #696
	rsbs	r5, r1, #0
	movs	r4, #0
	mov.w	r3, #-1
	b	.LBB29_18
.LBB29_16:
	ldrh	r1, [r2]
	movs	r4, #1
	strh	r1, [r2, #-2]
.LBB29_17:
	adds	r1, r5, r0
	adds	r2, #2
	adds	r1, #1
	mov	r3, r0
	ldr.w	r1, [r10, #692]
	beq	.LBB29_23
.LBB29_18:
	lsls	r0, r4, #31
	add.w	r0, r3, #1
	beq	.LBB29_21
	cmp	r0, r1
	bhs	.LBB29_25
	cmp	r3, r1
	blo	.LBB29_16
	b	.LBB29_27
.LBB29_21:
	cmp	r0, r1
	bhs	.LBB29_26
	ldrh	r1, [r2]
	subs	r1, r1, r6
	clz	r1, r1
	lsrs	r4, r1, #5
	b	.LBB29_17
.LBB29_23:
	cmp	r1, #0
	itt	ne
	subne	r0, r1, #1
	strne.w	r0, [r10, #692]
.LBB29_24:
	add.w	sp, sp, #520
	pop.w	{r8, r9, r10}
	pop	{r4, r5, r6, r7, pc}
.LBB29_25:
	movw	r2, :lower16:.Lanon.0c1329e98a8e4daf707f1d3aba20b49b.147
	movt	r2, :upper16:.Lanon.0c1329e98a8e4daf707f1d3aba20b49b.147
	bl	core::panicking::panic_bounds_check::h693951cbac28abbe
	.inst.n	0xdefe
.LBB29_26:
	movw	r2, :lower16:.Lanon.0c1329e98a8e4daf707f1d3aba20b49b.149
	movt	r2, :upper16:.Lanon.0c1329e98a8e4daf707f1d3aba20b49b.149
	bl	core::panicking::panic_bounds_check::h693951cbac28abbe
	.inst.n	0xdefe
.LBB29_27:
	movw	r2, :lower16:.Lanon.0c1329e98a8e4daf707f1d3aba20b49b.148
	mov	r0, r3
	movt	r2, :upper16:.Lanon.0c1329e98a8e4daf707f1d3aba20b49b.148
	bl	core::panicking::panic_bounds_check::h693951cbac28abbe
	.inst.n	0xdefe
.LBB29_28:
	movw	r0, :lower16:.Lanon.0c1329e98a8e4daf707f1d3aba20b49b.218
	movw	r2, :lower16:.Lanon.0c1329e98a8e4daf707f1d3aba20b49b.219
	movt	r0, :upper16:.Lanon.0c1329e98a8e4daf707f1d3aba20b49b.218
	movt	r2, :upper16:.Lanon.0c1329e98a8e4daf707f1d3aba20b49b.219
	movs	r1, #34
	bl	core::panicking::panic::ha0d68f1d939a874b
	.inst.n	0xdefe
.Lfunc_end29:
	.size	minimq::session_state::SessionState<Clock,_,_>::handle_puback::h378a4214fd68aadc, .Lfunc_end29-minimq::session_state::SessionState<Clock,_,_>::handle_puback::h378a4214fd68aadc
	.cfi_endproc
	.cantunwind
	.fnend

	.section	.text._ZN14thermostat_eem8hardware5setup5setup17h69b53dfc2efddca9E,"ax",%progbits
	.p2align	2
	.type	thermostat_eem::hardware::setup::setup::h69b53dfc2efddca9,%function
	.code	16
	.thumb_func
thermostat_eem::hardware::setup::setup::h69b53dfc2efddca9:
.Lfunc_begin30:
	.fnstart
	.cfi_startproc
	.save	{r4, r5, r6, r7, lr}
	push	{r4, r5, r6, r7, lr}
	.cfi_def_cfa_offset 20
	.cfi_offset lr, -4
	.cfi_offset r7, -8
	.cfi_offset r6, -12
	.cfi_offset r5, -16
	.cfi_offset r4, -20
	.setfp	r7, sp, #12
	add	r7, sp, #12
	.cfi_def_cfa r7, 8
	.save	{r8, r9, r10, r11}
	push.w	{r8, r9, r10, r11}
	.cfi_offset r11, -24
	.cfi_offset r10, -28
	.cfi_offset r9, -32
	.cfi_offset r8, -36
	.pad	#6432
	sub.w	sp, sp, #6432
	.pad	#20
	sub	sp, #20
	mov	r4, r0
	add.w	r12, r0, #69
	add.w	r6, r0, #44
	movw	r0, #18456
	movt	r0, #22530
	add	r1, sp, #52
	add.w	r8, r1, #2
	movs	r2, #6
	ldr	r1, [r0, #-12]
	bfi	r1, r2, #0, #3
	str	r1, [r0, #-12]
.LBB30_1:
	ldr	r1, [r0, #-20]
	lsls	r1, r1, #18
	bmi	.LBB30_4
	ldr	r1, [r0, #-20]
	lsls	r1, r1, #18
	itt	pl
	ldrpl	r1, [r0, #-20]
	lslspl.w	r1, r1, #18
	bmi	.LBB30_4
	ldr	r1, [r0, #-20]
	lsls	r1, r1, #18
	bpl	.LBB30_1
.LBB30_4:
	mov.w	r1, #49152
	str	r1, [r0]
.LBB30_5:
	ldr	r1, [r0]
	lsls	r1, r1, #18
	bmi	.LBB30_8
	ldr	r1, [r0]
	lsls	r1, r1, #18
	itt	pl
	ldrpl	r1, [r0]
	lslspl.w	r1, r1, #18
	bmi	.LBB30_8
	ldr	r1, [r0]
	lsls	r1, r1, #18
	bpl	.LBB30_5
.LBB30_8:
	movw	r5, #17408
	movt	r5, #22530
	ldr.w	r0, [r5, #1024]
	orr	r0, r0, #256
	str.w	r0, [r5, #1024]
.LBB30_9:
	ldr.w	r0, [r5, #1024]
	lsls	r0, r0, #23
	bmi	.LBB30_12
	ldr.w	r0, [r5, #1024]
	lsls	r0, r0, #23
	itt	pl
	ldrpl.w	r0, [r5, #1024]
	lslspl.w	r0, r0, #23
	bmi	.LBB30_12
	ldr.w	r0, [r5, #1024]
	lsls	r0, r0, #23
	bpl	.LBB30_9
.LBB30_12:
	ldr.w	r0, [r5, #220]
	movs	r1, #4
	orr	r0, r0, #-2147483648
	str.w	r0, [r5, #220]
	ldr	r0, [r5, #80]
	bfi	r0, r1, #12, #3
	str	r0, [r5, #80]
	mov.w	r0, #65536
	str.w	r0, [r5, #208]
	ldr	r2, [r5, #44]
	movs	r0, #1
	bfi	r2, r0, #1, #3
	str	r2, [r5, #44]
	ldr	r2, [r5, #40]
	bfi	r2, r1, #4, #6
	str	r2, [r5, #40]
	ldr	r3, [r5, #48]
	movs	r2, #199
	bfi	r3, r2, #0, #9
	str	r3, [r5, #48]
	ldr	r3, [r5, #44]
	bic	r3, r3, #1
	str	r3, [r5, #44]
	ldr	r3, [r5, #48]
	bic	r3, r3, #65024
	str	r3, [r5, #48]
	ldr	r3, [r5, #44]
	orr	r3, r3, #65536
	str	r3, [r5, #44]
	ldr	r3, [r5, #44]
	bic	r3, r3, #131072
	str	r3, [r5, #44]
	ldr	r3, [r5, #48]
	bfi	r3, r0, #24, #7
	str	r3, [r5, #48]
	ldr	r3, [r5, #44]
	orr	r3, r3, #262144
	str	r3, [r5, #44]
	ldr	r3, [r5, #44]
	bfi	r3, r0, #5, #3
	str	r3, [r5, #44]
	ldr	r3, [r5, #40]
	bfi	r3, r1, #12, #6
	str	r3, [r5, #40]
	ldr	r1, [r5, #56]
	bfi	r1, r2, #0, #9
	str	r1, [r5, #56]
	ldr	r1, [r5, #44]
	movs	r2, #3
	bic	r1, r1, #16
	str	r1, [r5, #44]
	ldr	r1, [r5, #56]
	bfi	r1, r2, #9, #7
	str	r1, [r5, #56]
	ldr	r1, [r5, #44]
	orr	r1, r1, #524288
	str	r1, [r5, #44]
	ldr	r1, [r5, #56]
	bfi	r1, r2, #16, #7
	str	r1, [r5, #56]
	ldr	r1, [r5, #44]
	orr	r1, r1, #1048576
	str	r1, [r5, #44]
	ldr	r1, [r5, #44]
	bic	r1, r1, #2097152
	str	r1, [r5, #44]
	ldr	r1, [r5]
	lsls	r1, r1, #31
	beq.w	.LBB30_345
	ldr	r0, [r5]
	tst.w	r0, #24
	bne.w	.LBB30_346
	ldr	r0, [r5, #116]
	orr	r0, r0, #1
	str	r0, [r5, #116]
.LBB30_15:
	ldr	r0, [r5, #116]
	lsls	r0, r0, #30
	bmi	.LBB30_18
	ldr	r0, [r5, #116]
	lsls	r0, r0, #30
	itt	pl
	ldrpl	r0, [r5, #116]
	lslspl.w	r0, r0, #30
	bmi	.LBB30_18
	ldr	r0, [r5, #116]
	lsls	r0, r0, #30
	bpl	.LBB30_15
.LBB30_18:
	movw	r0, #8192
	movw	r1, #1570
	movt	r0, #20992
	str	r1, [r0]
.LBB30_19:
	ldr	r1, [r0]
	and	r1, r1, #7
	cmp	r1, #2
	beq	.LBB30_22
	ldr	r1, [r0]
	and	r1, r1, #7
	cmp	r1, #2
	ittt	ne
	ldrne	r1, [r0]
	andne	r1, r1, #7
	cmpne	r1, #2
	beq	.LBB30_22
	ldr	r1, [r0]
	and	r1, r1, #7
	cmp	r1, #2
	bne	.LBB30_19
.LBB30_22:
	ldr	r0, [r5]
	orr	r0, r0, #128
	str	r0, [r5]
.LBB30_23:
	ldr	r0, [r5]
	lsls	r0, r0, #23
	bmi	.LBB30_26
	ldr	r0, [r5]
	lsls	r0, r0, #23
	itt	pl
	ldrpl	r0, [r5]
	lslspl.w	r0, r0, #23
	bmi	.LBB30_26
	ldr	r0, [r5]
	lsls	r0, r0, #23
	bpl	.LBB30_23
.LBB30_26:
	ldr	r0, [r5]
	orr	r0, r0, #4096
	str	r0, [r5]
.LBB30_27:
	ldr	r0, [r5]
	lsls	r0, r0, #18
	bmi	.LBB30_30
	ldr	r0, [r5]
	lsls	r0, r0, #18
	itt	pl
	ldrpl	r0, [r5]
	lslspl.w	r0, r0, #18
	bmi	.LBB30_30
	ldr	r0, [r5]
	lsls	r0, r0, #18
	bpl	.LBB30_27
.LBB30_30:
	ldr	r0, [r5, #16]
	movs	r1, #36
	bfi	r0, r1, #18, #14
	str	r0, [r5, #16]
	ldr	r0, [r5]
	bic	r0, r0, #327680
	add.w	r0, r0, #65536
	str	r0, [r5]
.LBB30_31:
	ldr	r0, [r5]
	lsls	r0, r0, #14
	bmi	.LBB30_34
	ldr	r0, [r5]
	lsls	r0, r0, #14
	itt	pl
	ldrpl	r0, [r5]
	lslspl.w	r0, r0, #14
	bmi	.LBB30_34
	ldr	r0, [r5]
	lsls	r0, r0, #14
	bpl	.LBB30_31
.LBB30_34:
	ldr	r0, [r5, #40]
	movs	r1, #2
	bfi	r0, r1, #0, #2
	str	r0, [r5, #40]
	ldr	r0, [r5]
	orr	r0, r0, #16777216
	str	r0, [r5]
.LBB30_35:
	ldr	r0, [r5]
	lsls	r0, r0, #6
	bmi	.LBB30_38
	ldr	r0, [r5]
	lsls	r0, r0, #6
	itt	pl
	ldrpl	r0, [r5]
	lslspl.w	r0, r0, #6
	bmi	.LBB30_38
	ldr	r0, [r5]
	lsls	r0, r0, #6
	bpl	.LBB30_35
.LBB30_38:
	ldr	r0, [r5]
	orr	r0, r0, #67108864
	str	r0, [r5]
.LBB30_39:
	ldr	r0, [r5]
	lsls	r0, r0, #4
	bmi	.LBB30_42
	ldr	r0, [r5]
	lsls	r0, r0, #4
	itt	pl
	ldrpl	r0, [r5]
	lslspl.w	r0, r0, #4
	bmi	.LBB30_42
	ldr	r0, [r5]
	lsls	r0, r0, #4
	bpl	.LBB30_39
.LBB30_42:
	ldr	r0, [r5, #24]
	movw	r1, #3967
	bics	r0, r1
	adds	r0, #72
	str	r0, [r5, #24]
.LBB30_43:
	ldr	r0, [r5, #24]
	tst.w	r0, #3840
	beq	.LBB30_46
	ldr	r0, [r5, #24]
	tst.w	r0, #3840
	itt	ne
	ldrne	r0, [r5, #24]
	tstne.w	r0, #3840
	beq	.LBB30_46
	ldr	r0, [r5, #24]
	tst.w	r0, #3840
	bne	.LBB30_43
.LBB30_46:
	ldr	r0, [r5, #28]
	movs	r1, #4
	bic	r0, r0, #1904
	add.w	r0, r0, #1088
	str	r0, [r5, #28]
	ldr	r0, [r5, #32]
	bfi	r0, r1, #4, #3
	str	r0, [r5, #32]
	ldr	r0, [r5, #76]
	movs	r1, #3
	bic	r0, r0, #805306368
	str	r0, [r5, #76]
	ldr	r0, [r5, #16]
	bic	r0, r0, #32768
	str	r0, [r5, #16]
	ldr	r0, [r5, #16]
	bfi	r0, r1, #0, #3
	str	r0, [r5, #16]
.LBB30_47:
	ldr	r0, [r5, #16]
	and	r0, r0, #56
	cmp	r0, #24
	beq	.LBB30_50
	ldr	r0, [r5, #16]
	and	r0, r0, #56
	cmp	r0, #24
	ittt	ne
	ldrne	r0, [r5, #16]
	andne	r0, r0, #56
	cmpne	r0, #24
	beq	.LBB30_50
	ldr	r0, [r5, #16]
	and	r0, r0, #56
	cmp	r0, #24
	bne	.LBB30_47
.LBB30_50:
	ldr	r0, [r5]
	lsls	r0, r0, #23
	bpl.w	.LBB30_347
	str	r4, [sp, #44]
	movw	r2, #1056
	strd	r12, r6, [sp, #36]
	movt	r2, #22528
	ldr.w	r0, [r5, #244]
	orr	r0, r0, #2
	str.w	r0, [r5, #244]
	movw	r1, #65532
	ldr	r0, [r2]
	movt	r1, #65534
	ands	r0, r1
	adds	r0, #1
	str	r0, [r2]
.LBB30_52:
	ldr	r0, [r2]
	lsls	r0, r0, #23
	bmi	.LBB30_55
	ldr	r0, [r2]
	lsls	r0, r0, #23
	itt	pl
	ldrpl	r0, [r2]
	lslspl.w	r0, r0, #23
	bmi	.LBB30_55
	ldr	r0, [r2]
	lsls	r0, r0, #23
	bpl	.LBB30_52
.LBB30_55:
	bl	__primask_r
	mov	r4, r0
	bl	__cpsid
	ldr.w	r0, [r5, #224]
	lsls	r1, r4, #31
	orr	r0, r0, #1
	str.w	r0, [r5, #224]
	bne	.LBB30_57
	bl	__cpsie
.LBB30_57:
	bl	__primask_r
	mov	r4, r0
	bl	__cpsid
	ldr.w	r0, [r5, #136]
	lsls	r1, r4, #31
	orr	r0, r0, #1
	str.w	r0, [r5, #136]
	ldr.w	r0, [r5, #136]
	bic	r0, r0, #1
	str.w	r0, [r5, #136]
	bne	.LBB30_59
	bl	__cpsie
.LBB30_59:
	bl	__primask_r
	mov	r4, r0
	bl	__cpsid
	ldr.w	r0, [r5, #224]
	lsls	r1, r4, #31
	orr	r0, r0, #2
	str.w	r0, [r5, #224]
	bne	.LBB30_61
	bl	__cpsie
.LBB30_61:
	bl	__primask_r
	mov	r4, r0
	bl	__cpsid
	ldr.w	r0, [r5, #136]
	lsls	r1, r4, #31
	orr	r0, r0, #2
	str.w	r0, [r5, #136]
	ldr.w	r0, [r5, #136]
	bic	r0, r0, #2
	str.w	r0, [r5, #136]
	bne	.LBB30_63
	bl	__cpsie
.LBB30_63:
	bl	__primask_r
	mov	r4, r0
	bl	__cpsid
	ldr.w	r0, [r5, #224]
	lsls	r1, r4, #31
	orr	r0, r0, #4
	str.w	r0, [r5, #224]
	bne	.LBB30_65
	bl	__cpsie
.LBB30_65:
	bl	__primask_r
	mov	r4, r0
	bl	__cpsid
	ldr.w	r0, [r5, #136]
	lsls	r1, r4, #31
	orr	r0, r0, #4
	str.w	r0, [r5, #136]
	ldr.w	r0, [r5, #136]
	bic	r0, r0, #4
	str.w	r0, [r5, #136]
	bne	.LBB30_67
	bl	__cpsie
.LBB30_67:
	bl	__primask_r
	mov	r4, r0
	bl	__cpsid
	ldr.w	r0, [r5, #224]
	lsls	r1, r4, #31
	orr	r0, r0, #8
	str.w	r0, [r5, #224]
	bne	.LBB30_69
	bl	__cpsie
.LBB30_69:
	bl	__primask_r
	mov	r4, r0
	bl	__cpsid
	ldr.w	r0, [r5, #136]
	lsls	r1, r4, #31
	orr	r0, r0, #8
	str.w	r0, [r5, #136]
	ldr.w	r0, [r5, #136]
	bic	r0, r0, #8
	str.w	r0, [r5, #136]
	bne	.LBB30_71
	bl	__cpsie
.LBB30_71:
	bl	__primask_r
	mov	r4, r0
	bl	__cpsid
	ldr.w	r0, [r5, #224]
	lsls	r1, r4, #31
	orr	r0, r0, #16
	str.w	r0, [r5, #224]
	bne	.LBB30_73
	bl	__cpsie
.LBB30_73:
	bl	__primask_r
	mov	r4, r0
	bl	__cpsid
	ldr.w	r0, [r5, #136]
	lsls	r1, r4, #31
	orr	r0, r0, #16
	str.w	r0, [r5, #136]
	ldr.w	r0, [r5, #136]
	bic	r0, r0, #16
	str.w	r0, [r5, #136]
	bne	.LBB30_75
	bl	__cpsie
.LBB30_75:
	bl	__primask_r
	mov	r4, r0
	bl	__cpsid
	ldr.w	r0, [r5, #224]
	lsls	r1, r4, #31
	orr	r0, r0, #32
	str.w	r0, [r5, #224]
	bne	.LBB30_77
	bl	__cpsie
.LBB30_77:
	bl	__primask_r
	mov	r4, r0
	bl	__cpsid
	ldr.w	r0, [r5, #136]
	lsls	r1, r4, #31
	orr	r0, r0, #32
	str.w	r0, [r5, #136]
	ldr.w	r0, [r5, #136]
	bic	r0, r0, #32
	str.w	r0, [r5, #136]
	bne	.LBB30_79
	bl	__cpsie
.LBB30_79:
	bl	__primask_r
	mov	r4, r0
	bl	__cpsid
	ldr.w	r0, [r5, #224]
	lsls	r1, r4, #31
	orr	r0, r0, #64
	str.w	r0, [r5, #224]
	bne	.LBB30_81
	bl	__cpsie
.LBB30_81:
	str.w	r8, [sp, #48]
	bl	__primask_r
	mov	r4, r0
	bl	__cpsid
	ldr.w	r0, [r5, #136]
	lsls	r1, r4, #31
	orr	r0, r0, #64
	str.w	r0, [r5, #136]
	ldr.w	r0, [r5, #136]
	bic	r0, r0, #64
	str.w	r0, [r5, #136]
	bne	.LBB30_83
	bl	__cpsie
.LBB30_83:
	movw	r9, #4096
	movw	r2, #64524
	movt	r9, #22530
	movt	r2, #65535
	movw	r12, #3072
	movw	r6, #6156
	movt	r12, #22530
	ldr.w	r0, [r9, r2]
	bic	r0, r0, #196608
	str.w	r0, [r9, r2]
	ldr.w	r0, [r12]
	movt	r6, #22530
	bic	r0, r0, #196608
	str.w	r0, [r12]
	ldr.w	r0, [r9, r2]
	movw	r11, #6144
	bic	r0, r0, #786432
	str.w	r0, [r9, r2]
	ldr.w	r0, [r12]
	movt	r11, #22530
	bic	r0, r0, #786432
	str.w	r0, [r12]
	ldr.w	r0, [r9, r2]
	movw	r3, #64512
	bic	r0, r0, #3145728
	str.w	r0, [r9, r2]
	ldr.w	r0, [r12]
	movt	r3, #65535
	bic	r0, r0, #3145728
	str.w	r0, [r12]
	ldr.w	r0, [r9, r2]
	movw	r4, #2048
	bic	r0, r0, #12582912
	str.w	r0, [r9, r2]
	ldr.w	r0, [r12]
	movt	r4, #22530
	bic	r0, r0, #12582912
	str.w	r0, [r12]
	ldr	r0, [r6]
	bic	r0, r0, #786432
	str	r0, [r6]
	ldr	r0, [r6, #-8]
	bic	r0, r0, #512
	str	r0, [r6, #-8]
	ldr.w	r1, [r11]
	movs	r0, #1
	bfi	r1, r0, #18, #2
	str.w	r1, [r11]
	ldr	r1, [r6]
	bic	r1, r1, #3145728
	str	r1, [r6]
	ldr	r1, [r6, #-8]
	bic	r1, r1, #1024
	str	r1, [r6, #-8]
	ldr.w	r1, [r11]
	bfi	r1, r0, #20, #2
	str.w	r1, [r11]
	ldr.w	r1, [r9, #12]
	bic	r1, r1, #196608
	str.w	r1, [r9, #12]
	ldr.w	r1, [r9, #4]
	bic	r1, r1, #256
	str.w	r1, [r9, #4]
	ldr.w	r1, [r9]
	bfi	r1, r0, #16, #2
	str.w	r1, [r9]
	ldr.w	r1, [r9, #12]
	bic	r1, r1, #3145728
	str.w	r1, [r9, #12]
	ldr.w	r1, [r9, #4]
	bic	r1, r1, #1024
	str.w	r1, [r9, #4]
	ldr.w	r1, [r9]
	bfi	r1, r0, #20, #2
	str.w	r1, [r9]
	ldr.w	r1, [r9, #12]
	bic	r1, r1, #50331648
	str.w	r1, [r9, #12]
	ldr.w	r1, [r9, #4]
	bic	r1, r1, #4096
	str.w	r1, [r9, #4]
	ldr.w	r1, [r9]
	bfi	r1, r0, #24, #2
	str.w	r1, [r9]
	ldr	r1, [r6]
	bic	r1, r1, #-1073741824
	str	r1, [r6]
	ldr	r1, [r6, #-8]
	bic	r1, r1, #32768
	str	r1, [r6, #-8]
	ldr.w	r1, [r11]
	bfi	r1, r0, #30, #2
	str.w	r1, [r11]
	ldr.w	r1, [r9, #12]
	bic	r1, r1, #-1073741824
	str.w	r1, [r9, #12]
	ldr.w	r1, [r9, #4]
	bic	r1, r1, #32768
	str.w	r1, [r9, #4]
	ldr.w	r1, [r9]
	bfi	r1, r0, #30, #2
	str.w	r1, [r9]
	ldr	r1, [r6]
	bic	r1, r1, #196608
	str	r1, [r6]
	ldr	r1, [r6, #-8]
	bic	r1, r1, #256
	str	r1, [r6, #-8]
	ldr.w	r1, [r11]
	bfi	r1, r0, #16, #2
	str.w	r1, [r11]
	ldr	r1, [r6]
	bic	r1, r1, #768
	str	r1, [r6]
	ldr	r1, [r6, #-8]
	bic	r1, r1, #16
	str	r1, [r6, #-8]
	ldr.w	r1, [r11]
	bfi	r1, r0, #8, #2
	str.w	r1, [r11]
	ldr	r1, [r6]
	bic	r1, r1, #3072
	str	r1, [r6]
	ldr	r1, [r6, #-8]
	bic	r1, r1, #32
	str	r1, [r6, #-8]
	ldr.w	r1, [r11]
	bfi	r1, r0, #10, #2
	str.w	r1, [r11]
	ldr	r1, [r6]
	bic	r1, r1, #12288
	str	r1, [r6]
	ldr	r1, [r6, #-8]
	bic	r1, r1, #64
	str	r1, [r6, #-8]
	ldr.w	r1, [r11]
	bfi	r1, r0, #12, #2
	str.w	r1, [r11]
	ldr	r1, [r6]
	bic	r1, r1, #49152
	str	r1, [r6]
	ldr	r1, [r6, #-8]
	bic	r1, r1, #128
	str	r1, [r6, #-8]
	ldr.w	r1, [r11]
	bfi	r1, r0, #14, #2
	str.w	r1, [r11]
	ldr.w	r1, [r11, r2]
	bic	r1, r1, #48
	str.w	r1, [r11, r2]
	ldr.w	r1, [r11, r3]
	bic	r1, r1, #48
	str.w	r1, [r11, r3]
	ldr.w	r1, [r9, #12]
	movw	r3, #63512
	bic	r1, r1, #49152
	str.w	r1, [r9, #12]
	ldr.w	r1, [r9]
	movt	r3, #65535
	bic	r1, r1, #49152
	str.w	r1, [r9]
	ldr.w	r1, [r9, r2]
	bic	r1, r1, #3
	str.w	r1, [r9, r2]
	ldr.w	r1, [r12, #4]
	bic	r1, r1, #1
	str.w	r1, [r12, #4]
	ldr.w	r1, [r12]
	bfi	r1, r0, #0, #2
	str.w	r1, [r12]
	ldr.w	r1, [r9, r2]
	bic	r1, r1, #48
	str.w	r1, [r9, r2]
	ldr.w	r1, [r12, #4]
	mov.w	r2, #16777216
	bic	r1, r1, #4
	str.w	r1, [r12, #4]
	ldr.w	r1, [r12]
	bfi	r1, r0, #4, #2
	str.w	r1, [r12]
	ldr	r1, [r6]
	bic	r1, r1, #50331648
	str	r1, [r6]
	ldr.w	r1, [r11]
	bic	r1, r1, #50331648
	str.w	r1, [r11]
	mov.w	r1, #1048576
	str	r1, [r6, #12]
	mov.w	r1, #2097152
	str	r1, [r6, #12]
	mov.w	r1, #4194304
	str	r1, [r6, #12]
	mov.w	r1, #8388608
	str	r1, [r6, #12]
	mov.w	r1, #33554432
	str	r1, [r6, #12]
	mov.w	r1, #67108864
	str	r1, [r6, #12]
	str.w	r2, [r11, r3]
	str.w	r1, [r11, r3]
	mov.w	r1, #268435456
	str.w	r1, [r11, r3]
	mov.w	r1, #-2147483648
	str	r1, [r6, #12]
	str.w	r1, [r11, r3]
	mov.w	r1, #65536
	str	r2, [r6, #12]
	movw	r2, #64536
	movt	r2, #65535
	movs	r3, #0
	movt	r3, #22530
	str.w	r1, [r9, r2]
	mov.w	r1, #262144
	str.w	r1, [r9, r2]
	movw	r1, #64528
	movt	r1, #65535
	ldr.w	r2, [r9, r1]
	ldr.w	r2, [r9, r1]
	ldr.w	r2, [r9, r1]
	ldr.w	r2, [r9, r1]
	ldr.w	r1, [r11, r1]
	movw	r2, #64548
	movw	r1, #63504
	movt	r2, #65535
	movt	r1, #65535
	ldr.w	r1, [r11, r1]
	ldr	r1, [r6, #4]
	ldr	r1, [r4, r2]
	movw	r6, #64544
	bfi	r1, r0, #8, #4
	str	r1, [r4, r2]
	ldr.w	r0, [r3, #1024]
	movs	r1, #2
	movt	r6, #65535
	movs	r2, #3
	bfi	r0, r1, #20, #2
